	.cpu cortex-m0
	.eabi_attribute 20, 1
	.eabi_attribute 21, 1
	.eabi_attribute 23, 3
	.eabi_attribute 24, 1
	.eabi_attribute 25, 1
	.eabi_attribute 26, 1
	.eabi_attribute 30, 1
	.eabi_attribute 34, 0
	.eabi_attribute 18, 4
	.file	"aes.c"
	.text
.Ltext0:
	.cfi_sections	.debug_frame
	.section	.text.AddRoundKey,"ax",%progbits
	.align	1
	.syntax unified
	.code	16
	.thumb_func
	.fpu softvfp
	.type	AddRoundKey, %function
AddRoundKey:
.LFB2:
	.file 1 "src/aes.c"
	.loc 1 240 0
	.cfi_startproc
	@ args = 0, pretend = 0, frame = 0
	@ frame_needed = 0, uses_anonymous_args = 0
.LVL0:
	push	{r4, r5, r6, lr}
	.cfi_def_cfa_offset 16
	.cfi_offset 4, -16
	.cfi_offset 5, -12
	.cfi_offset 6, -8
	.cfi_offset 14, -4
.LVL1:
	movs	r5, r1
	lsls	r0, r0, #4
.LVL2:
	adds	r2, r2, r0
.LVL3:
	adds	r1, r1, #16
.LVL4:
.L2:
	.loc 1 240 0
	movs	r3, #0
.LVL5:
.L3:
	.loc 1 246 0 discriminator 3
	ldrb	r4, [r5, r3]
	ldrb	r6, [r2, r3]
	eors	r4, r6
	strb	r4, [r5, r3]
.LVL6:
	adds	r3, r3, #1
.LVL7:
	.loc 1 244 0 discriminator 3
	cmp	r3, #4
	bne	.L3
	adds	r5, r5, #4
	adds	r2, r2, #4
	.loc 1 242 0 discriminator 2
	cmp	r5, r1
	bne	.L2
	.loc 1 249 0
	@ sp needed
	pop	{r4, r5, r6, pc}
	.cfi_endproc
.LFE2:
	.size	AddRoundKey, .-AddRoundKey
	.section	.text.xtime,"ax",%progbits
	.align	1
	.syntax unified
	.code	16
	.thumb_func
	.fpu softvfp
	.type	xtime, %function
xtime:
.LFB5:
	.loc 1 297 0
	.cfi_startproc
	@ args = 0, pretend = 0, frame = 0
	@ frame_needed = 0, uses_anonymous_args = 0
	@ link register save eliminated.
.LVL8:
	.loc 1 298 0
	lsrs	r3, r0, #7
	lsls	r2, r3, #1
	adds	r3, r3, r2
	lsls	r2, r3, #3
	adds	r3, r3, r2
	lsls	r0, r0, #1
.LVL9:
	eors	r0, r3
	uxtb	r0, r0
	.loc 1 299 0
	@ sp needed
	bx	lr
	.cfi_endproc
.LFE5:
	.size	xtime, .-xtime
	.section	.text.AES_init_ctx,"ax",%progbits
	.align	1
	.global	AES_init_ctx
	.syntax unified
	.code	16
	.thumb_func
	.fpu softvfp
	.type	AES_init_ctx, %function
AES_init_ctx:
.LFB1:
	.loc 1 222 0
	.cfi_startproc
	@ args = 0, pretend = 0, frame = 0
	@ frame_needed = 0, uses_anonymous_args = 0
.LVL10:
	push	{r4, r5, r6, r7, lr}
	.cfi_def_cfa_offset 20
	.cfi_offset 4, -20
	.cfi_offset 5, -16
	.cfi_offset 6, -12
	.cfi_offset 7, -8
	.cfi_offset 14, -4
	mov	lr, r10
	mov	r7, r9
	mov	r6, r8
	push	{r6, r7, lr}
	.cfi_def_cfa_offset 32
	.cfi_offset 8, -32
	.cfi_offset 9, -28
	.cfi_offset 10, -24
.LVL11:
	movs	r2, r0
	movs	r4, r1
	adds	r4, r4, #16
.LVL12:
.L8:
.LBB4:
.LBB5:
	.loc 1 156 0
	ldrb	r3, [r1]
	strb	r3, [r0]
	.loc 1 157 0
	ldrb	r3, [r1, #1]
	strb	r3, [r0, #1]
	.loc 1 158 0
	ldrb	r3, [r1, #2]
	strb	r3, [r0, #2]
	.loc 1 159 0
	ldrb	r3, [r1, #3]
	strb	r3, [r0, #3]
	adds	r1, r1, #4
	adds	r0, r0, #4
	.loc 1 154 0
	cmp	r1, r4
	bne	.L8
	.loc 1 163 0
	movs	r5, #4
	.loc 1 174 0
	movs	r3, #3
	mov	r8, r3
	.loc 1 193 0
	ldr	r3, .L14
	mov	r10, r3
	.loc 1 199 0
	ldr	r3, .L14+4
	mov	ip, r3
	b	.L10
.LVL13:
.L9:
	.loc 1 214 0
	ldrb	r6, [r3]
	eors	r1, r6
.LVL14:
	strb	r1, [r3, #16]
	.loc 1 215 0
	ldrb	r1, [r3, #1]
	eors	r1, r7
	strb	r1, [r3, #17]
	.loc 1 216 0
	ldrb	r1, [r3, #2]
	eors	r4, r1
.LVL15:
	strb	r4, [r3, #18]
	.loc 1 217 0
	ldrb	r1, [r3, #3]
	eors	r0, r1
.LVL16:
	strb	r0, [r3, #19]
	.loc 1 163 0
	adds	r5, r5, #1
.LVL17:
	adds	r2, r2, #4
.LVL18:
	cmp	r5, #44
	beq	.L13
.LVL19:
.L10:
	movs	r3, r2
	.loc 1 167 0
	ldrb	r1, [r2, #12]
.LVL20:
	.loc 1 168 0
	ldrb	r7, [r2, #13]
.LVL21:
	.loc 1 169 0
	ldrb	r4, [r2, #14]
.LVL22:
	.loc 1 170 0
	ldrb	r0, [r2, #15]
.LVL23:
	.loc 1 174 0
	mov	r6, r8
	tst	r6, r5
	bne	.L9
.LVL24:
	.loc 1 193 0
	mov	r6, r10
	ldrb	r6, [r6, r7]
	mov	r9, r6
.LVL25:
	.loc 1 194 0
	mov	r6, r10
	ldrb	r7, [r6, r4]
.LVL26:
	.loc 1 195 0
	ldrb	r4, [r6, r0]
.LVL27:
	.loc 1 196 0
	ldrb	r0, [r6, r1]
.LVL28:
	.loc 1 199 0
	lsrs	r1, r5, #2
.LVL29:
	mov	r6, ip
	ldrb	r1, [r6, r1]
	mov	r6, r9
	eors	r1, r6
.LVL30:
	b	.L9
.LVL31:
.L13:
.LBE5:
.LBE4:
	.loc 1 224 0
	@ sp needed
.LVL32:
.LVL33:
	pop	{r2, r3, r4}
	mov	r8, r2
	mov	r9, r3
	mov	r10, r4
	pop	{r4, r5, r6, r7, pc}
.L15:
	.align	2
.L14:
	.word	sbox
	.word	.LANCHOR0
	.cfi_endproc
.LFE1:
	.size	AES_init_ctx, .-AES_init_ctx
	.section	.text.AES_ECB_encrypt,"ax",%progbits
	.align	1
	.global	AES_ECB_encrypt
	.syntax unified
	.code	16
	.thumb_func
	.fpu softvfp
	.type	AES_ECB_encrypt, %function
AES_ECB_encrypt:
.LFB12:
	.loc 1 461 0
	.cfi_startproc
	@ args = 0, pretend = 0, frame = 32
	@ frame_needed = 0, uses_anonymous_args = 0
.LVL34:
	push	{r4, r5, r6, r7, lr}
	.cfi_def_cfa_offset 20
	.cfi_offset 4, -20
	.cfi_offset 5, -16
	.cfi_offset 6, -12
	.cfi_offset 7, -8
	.cfi_offset 14, -4
	mov	lr, fp
	mov	r7, r10
	mov	r6, r9
	mov	r5, r8
	push	{r5, r6, r7, lr}
	.cfi_def_cfa_offset 36
	.cfi_offset 8, -36
	.cfi_offset 9, -32
	.cfi_offset 10, -28
	.cfi_offset 11, -24
	sub	sp, sp, #36
	.cfi_def_cfa_offset 72
	movs	r2, r0
	str	r0, [sp, #28]
	mov	r9, r1
	.loc 1 463 0
	str	r0, [sp, #12]
.LVL35:
.LBB18:
.LBB19:
	.loc 1 408 0
	movs	r0, #0
.LVL36:
	bl	AddRoundKey
.LVL37:
	.loc 1 413 0
	movs	r3, #1
	str	r3, [sp, #8]
	mov	r3, r9
	adds	r3, r3, #4
	str	r3, [sp, #24]
.LBB20:
.LBB21:
	.loc 1 260 0
	ldr	r3, .L31
	mov	fp, r3
	movs	r3, #16
	add	r3, r3, r9
	str	r3, [sp, #4]
	mov	r10, r9
	b	.L17
.LVL38:
.L30:
.LBE21:
.LBE20:
	.loc 1 418 0
	ldr	r2, [sp, #12]
	mov	r1, r10
	ldr	r4, [sp, #8]
	movs	r0, r4
	bl	AddRoundKey
.LVL39:
	.loc 1 413 0
	movs	r3, r4
	adds	r3, r3, #1
	uxtb	r3, r3
	str	r3, [sp, #8]
.LVL40:
	cmp	r3, #10
	beq	.L29
.LVL41:
.L17:
	mov	r3, r10
	str	r3, [sp, #16]
	mov	r1, r10
	ldr	r4, [sp, #24]
.LVL42:
.L22:
	movs	r0, r1
	adds	r0, r0, #16
.LBE19:
.LBE18:
	.loc 1 461 0
	movs	r3, r1
.LVL43:
.L18:
.LBB35:
.LBB34:
.LBB23:
.LBB22:
	.loc 1 260 0
	ldrb	r2, [r3]
	mov	r5, fp
	ldrb	r2, [r5, r2]
	strb	r2, [r3]
	adds	r3, r3, #4
	.loc 1 258 0
	cmp	r3, r0
	bne	.L18
.LVL44:
	adds	r1, r1, #1
.LVL45:
	.loc 1 256 0
	cmp	r1, r4
	bne	.L22
	str	r1, [sp, #20]
.LVL46:
.LBE22:
.LBE23:
.LBB24:
.LBB25:
	.loc 1 273 0
	mov	r3, r10
	ldrb	r3, [r3, #1]
.LVL47:
	.loc 1 274 0
	mov	r2, r10
	ldrb	r2, [r2, #5]
	mov	r1, r10
	strb	r2, [r1, #1]
.LVL48:
	.loc 1 275 0
	ldrb	r2, [r1, #9]
	strb	r2, [r1, #5]
	.loc 1 276 0
	ldrb	r2, [r1, #13]
	strb	r2, [r1, #9]
	.loc 1 277 0
	strb	r3, [r1, #13]
	.loc 1 280 0
	ldrb	r3, [r1, #2]
.LVL49:
	.loc 1 281 0
	ldrb	r2, [r1, #10]
	strb	r2, [r1, #2]
	.loc 1 282 0
	strb	r3, [r1, #10]
	.loc 1 284 0
	ldrb	r3, [r1, #6]
.LVL50:
	.loc 1 285 0
	ldrb	r2, [r1, #14]
	strb	r2, [r1, #6]
	.loc 1 286 0
	strb	r3, [r1, #14]
	.loc 1 289 0
	ldrb	r3, [r1, #3]
.LVL51:
	.loc 1 290 0
	ldrb	r2, [r1, #15]
	strb	r2, [r1, #3]
	.loc 1 291 0
	ldrb	r2, [r1, #11]
	strb	r2, [r1, #15]
	.loc 1 292 0
	ldrb	r2, [r1, #7]
	strb	r2, [r1, #11]
	.loc 1 293 0
	strb	r3, [r1, #7]
.LVL52:
	mov	r6, r10
.LVL53:
.L20:
.LBE25:
.LBE24:
.LBB26:
.LBB27:
	.loc 1 308 0
	ldrb	r3, [r6]
	mov	r9, r3
.LVL54:
	.loc 1 309 0
	ldrb	r5, [r6, #1]
	movs	r0, r3
	eors	r0, r5
	ldrb	r4, [r6, #2]
	ldrb	r3, [r6, #3]
.LVL55:
	mov	r8, r3
	eors	r3, r4
	str	r3, [sp]
	movs	r7, r3
	eors	r7, r0
.LVL56:
	.loc 1 310 0
	bl	xtime
.LVL57:
	mov	r3, r9
	eors	r0, r3
.LVL58:
	eors	r0, r7
	strb	r0, [r6]
	.loc 1 311 0
	movs	r3, r5
	eors	r3, r4
	movs	r0, r3
.LVL59:
	bl	xtime
.LVL60:
	eors	r5, r0
	eors	r5, r7
	strb	r5, [r6, #1]
.LVL61:
	.loc 1 312 0
	ldr	r0, [sp]
	bl	xtime
.LVL62:
	eors	r4, r0
	eors	r4, r7
	strb	r4, [r6, #2]
	.loc 1 313 0
	mov	r0, r9
.LVL63:
	mov	r3, r8
	eors	r0, r3
.LVL64:
	bl	xtime
.LVL65:
	mov	r3, r8
	eors	r0, r3
.LVL66:
	eors	r7, r0
.LVL67:
	strb	r7, [r6, #3]
	adds	r6, r6, #4
	.loc 1 306 0
	ldr	r3, [sp, #4]
	cmp	r6, r3
	bne	.L20
	b	.L30
.LVL68:
.L29:
	mov	r9, r10
.LBE27:
.LBE26:
.LBB28:
.LBB29:
	.loc 1 260 0
	ldr	r0, .L31
	ldr	r1, [sp, #16]
	ldr	r5, [sp, #20]
.LVL69:
.L21:
	movs	r4, r1
	adds	r4, r4, #16
.LBE29:
.LBE28:
	.loc 1 413 0
	movs	r3, r1
.LVL70:
.L23:
.LBB31:
.LBB30:
	.loc 1 260 0
	ldrb	r2, [r3]
	ldrb	r2, [r0, r2]
	strb	r2, [r3]
	adds	r3, r3, #4
	.loc 1 258 0
	cmp	r3, r4
	bne	.L23
.LVL71:
	adds	r1, r1, #1
.LVL72:
	.loc 1 256 0
	cmp	r1, r5
	bne	.L21
.LVL73:
.LBE30:
.LBE31:
.LBB32:
.LBB33:
	.loc 1 273 0
	mov	r3, r9
	ldrb	r3, [r3, #1]
.LVL74:
	.loc 1 274 0
	mov	r2, r9
	ldrb	r2, [r2, #5]
	mov	r1, r9
	strb	r2, [r1, #1]
.LVL75:
	.loc 1 275 0
	ldrb	r2, [r1, #9]
	strb	r2, [r1, #5]
	.loc 1 276 0
	ldrb	r2, [r1, #13]
	strb	r2, [r1, #9]
	.loc 1 277 0
	strb	r3, [r1, #13]
	.loc 1 280 0
	ldrb	r3, [r1, #2]
.LVL76:
	.loc 1 281 0
	ldrb	r2, [r1, #10]
	strb	r2, [r1, #2]
	.loc 1 282 0
	strb	r3, [r1, #10]
	.loc 1 284 0
	ldrb	r3, [r1, #6]
.LVL77:
	.loc 1 285 0
	ldrb	r2, [r1, #14]
	strb	r2, [r1, #6]
	.loc 1 286 0
	strb	r3, [r1, #14]
	.loc 1 289 0
	ldrb	r3, [r1, #3]
.LVL78:
	.loc 1 290 0
	ldrb	r2, [r1, #15]
	strb	r2, [r1, #3]
	.loc 1 291 0
	ldrb	r2, [r1, #11]
	strb	r2, [r1, #15]
	.loc 1 292 0
	ldrb	r2, [r1, #7]
	strb	r2, [r1, #11]
	.loc 1 293 0
	strb	r3, [r1, #7]
.LVL79:
.LBE33:
.LBE32:
	.loc 1 425 0
	ldr	r2, [sp, #28]
	movs	r0, #10
	bl	AddRoundKey
.LVL80:
.LBE34:
.LBE35:
	.loc 1 464 0
	add	sp, sp, #36
	@ sp needed
.LVL81:
.LVL82:
	pop	{r2, r3, r4, r5}
	mov	r8, r2
	mov	r9, r3
	mov	r10, r4
	mov	fp, r5
	pop	{r4, r5, r6, r7, pc}
.L32:
	.align	2
.L31:
	.word	sbox
	.cfi_endproc
.LFE12:
	.size	AES_ECB_encrypt, .-AES_ECB_encrypt
	.section	.text.AES_ECB_decrypt,"ax",%progbits
	.align	1
	.global	AES_ECB_decrypt
	.syntax unified
	.code	16
	.thumb_func
	.fpu softvfp
	.type	AES_ECB_decrypt, %function
AES_ECB_decrypt:
.LFB13:
	.loc 1 467 0
	.cfi_startproc
	@ args = 0, pretend = 0, frame = 72
	@ frame_needed = 0, uses_anonymous_args = 0
.LVL83:
	push	{r4, r5, r6, r7, lr}
	.cfi_def_cfa_offset 20
	.cfi_offset 4, -20
	.cfi_offset 5, -16
	.cfi_offset 6, -12
	.cfi_offset 7, -8
	.cfi_offset 14, -4
	mov	lr, fp
	mov	r7, r10
	mov	r6, r9
	mov	r5, r8
	push	{r5, r6, r7, lr}
	.cfi_def_cfa_offset 36
	.cfi_offset 8, -36
	.cfi_offset 9, -32
	.cfi_offset 10, -28
	.cfi_offset 11, -24
	sub	sp, sp, #76
	.cfi_def_cfa_offset 112
	movs	r2, r0
	str	r0, [sp, #68]
	mov	r8, r1
	.loc 1 469 0
	str	r0, [sp, #52]
.LVL84:
.LBB48:
.LBB49:
	.loc 1 433 0
	movs	r0, #10
.LVL85:
	bl	AddRoundKey
.LVL86:
	movs	r3, #9
	str	r3, [sp, #44]
	mov	r3, r8
	adds	r3, r3, #4
	str	r3, [sp, #64]
.LBB50:
.LBB51:
	.loc 1 368 0
	ldr	r3, .L48
	mov	r9, r3
	movs	r3, #16
	add	r3, r3, r8
	str	r3, [sp, #40]
	b	.L38
.LVL87:
.L47:
	ldr	r3, [sp, #48]
	mov	r8, r3
.LVL88:
	ldr	r3, [sp, #44]
	subs	r3, r3, #1
	uxtb	r3, r3
	str	r3, [sp, #44]
.LVL89:
.LBE51:
.LBE50:
	.loc 1 438 0
	cmp	r3, #0
	bne	.LCB733
	b	.L46	@long jump
.LCB733:
.LVL90:
.L38:
.LBB53:
.LBB54:
	.loc 1 378 0
	mov	r3, r8
	ldrb	r3, [r3, #13]
.LVL91:
	.loc 1 379 0
	mov	r2, r8
	ldrb	r2, [r2, #9]
	mov	r1, r8
	strb	r2, [r1, #13]
.LVL92:
	.loc 1 380 0
	ldrb	r2, [r1, #5]
	strb	r2, [r1, #9]
	.loc 1 381 0
	ldrb	r2, [r1, #1]
	strb	r2, [r1, #5]
	.loc 1 382 0
	strb	r3, [r1, #1]
	.loc 1 385 0
	ldrb	r3, [r1, #2]
.LVL93:
	.loc 1 386 0
	ldrb	r2, [r1, #10]
	strb	r2, [r1, #2]
	.loc 1 387 0
	strb	r3, [r1, #10]
	.loc 1 389 0
	ldrb	r3, [r1, #6]
.LVL94:
	.loc 1 390 0
	ldrb	r2, [r1, #14]
	strb	r2, [r1, #6]
	.loc 1 391 0
	strb	r3, [r1, #14]
	.loc 1 394 0
	ldrb	r3, [r1, #3]
.LVL95:
	.loc 1 395 0
	ldrb	r2, [r1, #7]
	strb	r2, [r1, #3]
	.loc 1 396 0
	ldrb	r2, [r1, #11]
	strb	r2, [r1, #7]
	.loc 1 397 0
	ldrb	r2, [r1, #15]
	strb	r2, [r1, #11]
	.loc 1 398 0
	strb	r3, [r1, #15]
.LVL96:
	str	r1, [sp, #56]
	ldr	r4, [sp, #64]
.LVL97:
.L34:
	movs	r0, r1
	adds	r0, r0, #16
.LBE54:
.LBE53:
	.loc 1 433 0
	movs	r3, r1
.LVL98:
.L35:
.LBB55:
.LBB52:
	.loc 1 368 0
	ldrb	r2, [r3]
	mov	r5, r9
	ldrb	r2, [r5, r2]
	strb	r2, [r3]
	adds	r3, r3, #4
	.loc 1 366 0
	cmp	r3, r0
	bne	.L35
.LVL99:
	adds	r1, r1, #1
.LVL100:
	.loc 1 364 0
	cmp	r1, r4
	bne	.L34
	str	r1, [sp, #60]
.LBE52:
.LBE55:
	.loc 1 442 0
	ldr	r2, [sp, #52]
	mov	r1, r8
	ldr	r0, [sp, #44]
	bl	AddRoundKey
.LVL101:
	mov	r4, r8
	str	r4, [sp, #48]
.LVL102:
.L37:
.LBB56:
.LBB57:
	.loc 1 346 0
	ldrb	r3, [r4]
	mov	fp, r3
.LVL103:
	.loc 1 347 0
	ldrb	r5, [r4, #1]
	str	r5, [sp, #4]
.LVL104:
	.loc 1 348 0
	ldrb	r7, [r4, #2]
.LVL105:
	.loc 1 349 0
	ldrb	r6, [r4, #3]
.LVL106:
	.loc 1 351 0
	movs	r0, r3
	bl	xtime
.LVL107:
	str	r0, [sp, #12]
	bl	xtime
.LVL108:
	movs	r5, r0
	bl	xtime
.LVL109:
	mov	r10, r0
	ldr	r0, [sp, #4]
	bl	xtime
.LVL110:
	str	r0, [sp, #16]
	bl	xtime
.LVL111:
	str	r0, [sp, #20]
	bl	xtime
.LVL112:
	mov	r8, r0
	str	r7, [sp, #8]
	movs	r0, r7
	bl	xtime
.LVL113:
	str	r0, [sp, #32]
	bl	xtime
.LVL114:
	str	r0, [sp, #24]
	bl	xtime
.LVL115:
	movs	r7, r0
.LVL116:
	movs	r0, r6
	bl	xtime
.LVL117:
	str	r0, [sp, #36]
	bl	xtime
.LVL118:
	str	r0, [sp, #28]
	bl	xtime
.LVL119:
	ldr	r3, [sp, #12]
	movs	r1, r5
	eors	r3, r5
	mov	r5, r10
	eors	r3, r5
	ldr	r2, [sp, #16]
	eors	r3, r2
	mov	r5, r8
	eors	r3, r5
	ldr	r2, [sp, #24]
	eors	r3, r2
	eors	r3, r7
	eors	r3, r0
	ldr	r5, [sp, #4]
	eors	r3, r5
	ldr	r2, [sp, #8]
	eors	r3, r2
	movs	r2, r6
	eors	r3, r6
	strb	r3, [r4]
	.loc 1 352 0
	ldr	r3, [sp, #16]
	mov	r6, r10
.LVL120:
	eors	r3, r6
	ldr	r5, [sp, #20]
	eors	r3, r5
	mov	r6, r8
	eors	r3, r6
	ldr	r5, [sp, #32]
	eors	r3, r5
	eors	r3, r7
	ldr	r6, [sp, #28]
	eors	r3, r6
	eors	r3, r0
	mov	r6, fp
	eors	r3, r6
	ldr	r6, [sp, #8]
	eors	r3, r6
	eors	r3, r2
	strb	r3, [r4, #1]
	.loc 1 353 0
	movs	r3, r1
	mov	r1, r10
	eors	r3, r1
	mov	r1, r8
	eors	r3, r1
	eors	r3, r5
	ldr	r1, [sp, #24]
	eors	r3, r1
	eors	r3, r7
	ldr	r1, [sp, #36]
	eors	r3, r1
	eors	r3, r0
	mov	r5, fp
	eors	r3, r5
	ldr	r5, [sp, #4]
	eors	r3, r5
	eors	r3, r2
	strb	r3, [r4, #2]
	.loc 1 354 0
	ldr	r3, [sp, #12]
	mov	r2, r10
.LVL121:
	eors	r3, r2
	ldr	r5, [sp, #20]
	eors	r3, r5
	mov	r2, r8
	eors	r3, r2
	eors	r7, r3
	eors	r7, r1
	ldr	r6, [sp, #28]
	eors	r7, r6
	eors	r0, r7
	mov	r3, fp
	eors	r0, r3
	ldr	r2, [sp, #4]
	eors	r0, r2
	ldr	r3, [sp, #8]
	eors	r0, r3
	strb	r0, [r4, #3]
	adds	r4, r4, #4
	.loc 1 344 0
	ldr	r3, [sp, #40]
	cmp	r4, r3
	bne	.L37
	b	.L47
.LVL122:
.L46:
.LBE57:
.LBE56:
.LBB58:
.LBB59:
	.loc 1 378 0
	mov	r3, r8
	ldrb	r3, [r3, #13]
.LVL123:
	.loc 1 379 0
	mov	r2, r8
	ldrb	r2, [r2, #9]
	mov	r1, r8
	strb	r2, [r1, #13]
.LVL124:
	.loc 1 380 0
	ldrb	r2, [r1, #5]
	strb	r2, [r1, #9]
	.loc 1 381 0
	ldrb	r2, [r1, #1]
	strb	r2, [r1, #5]
	.loc 1 382 0
	strb	r3, [r1, #1]
	.loc 1 385 0
	ldrb	r3, [r1, #2]
.LVL125:
	.loc 1 386 0
	ldrb	r2, [r1, #10]
	strb	r2, [r1, #2]
	.loc 1 387 0
	strb	r3, [r1, #10]
	.loc 1 389 0
	ldrb	r3, [r1, #6]
.LVL126:
	.loc 1 390 0
	ldrb	r2, [r1, #14]
	strb	r2, [r1, #6]
	.loc 1 391 0
	strb	r3, [r1, #14]
	.loc 1 394 0
	ldrb	r3, [r1, #3]
.LVL127:
	.loc 1 395 0
	ldrb	r2, [r1, #7]
	strb	r2, [r1, #3]
	.loc 1 396 0
	ldrb	r2, [r1, #11]
	strb	r2, [r1, #7]
	.loc 1 397 0
	ldrb	r2, [r1, #15]
	strb	r2, [r1, #11]
	.loc 1 398 0
	strb	r3, [r1, #15]
.LVL128:
.LBE59:
.LBE58:
.LBB60:
.LBB61:
	.loc 1 368 0
	ldr	r0, .L48
	ldr	r1, [sp, #56]
	ldr	r5, [sp, #60]
.LVL129:
.L39:
	movs	r4, r1
	adds	r4, r4, #16
.LBE61:
.LBE60:
	.loc 1 442 0
	movs	r3, r1
.LVL130:
.L40:
.LBB63:
.LBB62:
	.loc 1 368 0
	ldrb	r2, [r3]
	ldrb	r2, [r0, r2]
	strb	r2, [r3]
	adds	r3, r3, #4
	.loc 1 366 0
	cmp	r3, r4
	bne	.L40
.LVL131:
	adds	r1, r1, #1
.LVL132:
	.loc 1 364 0
	cmp	r1, r5
	bne	.L39
.LBE62:
.LBE63:
	.loc 1 450 0
	ldr	r2, [sp, #68]
	mov	r1, r8
	movs	r0, #0
	bl	AddRoundKey
.LVL133:
.LBE49:
.LBE48:
	.loc 1 470 0
	add	sp, sp, #76
	@ sp needed
.LVL134:
	pop	{r2, r3, r4, r5}
	mov	r8, r2
	mov	r9, r3
	mov	r10, r4
	mov	fp, r5
	pop	{r4, r5, r6, r7, pc}
.L49:
	.align	2
.L48:
	.word	rsbox
	.cfi_endproc
.LFE13:
	.size	AES_ECB_decrypt, .-AES_ECB_decrypt
	.global	Rcon
	.global	rsbox
	.global	sbox
	.section	.constdata,"aw",%progbits
	.align	2
	.set	.LANCHOR0,. + 0
	.type	Rcon, %object
	.size	Rcon, 11
Rcon:
	.byte	-115
	.byte	1
	.byte	2
	.byte	4
	.byte	8
	.byte	16
	.byte	32
	.byte	64
	.byte	-128
	.byte	27
	.byte	54
	.space	1
	.type	rsbox, %object
	.size	rsbox, 256
rsbox:
	.byte	82
	.byte	9
	.byte	106
	.byte	-43
	.byte	48
	.byte	54
	.byte	-91
	.byte	56
	.byte	-65
	.byte	64
	.byte	-93
	.byte	-98
	.byte	-127
	.byte	-13
	.byte	-41
	.byte	-5
	.byte	124
	.byte	-29
	.byte	57
	.byte	-126
	.byte	-101
	.byte	47
	.byte	-1
	.byte	-121
	.byte	52
	.byte	-114
	.byte	67
	.byte	68
	.byte	-60
	.byte	-34
	.byte	-23
	.byte	-53
	.byte	84
	.byte	123
	.byte	-108
	.byte	50
	.byte	-90
	.byte	-62
	.byte	35
	.byte	61
	.byte	-18
	.byte	76
	.byte	-107
	.byte	11
	.byte	66
	.byte	-6
	.byte	-61
	.byte	78
	.byte	8
	.byte	46
	.byte	-95
	.byte	102
	.byte	40
	.byte	-39
	.byte	36
	.byte	-78
	.byte	118
	.byte	91
	.byte	-94
	.byte	73
	.byte	109
	.byte	-117
	.byte	-47
	.byte	37
	.byte	114
	.byte	-8
	.byte	-10
	.byte	100
	.byte	-122
	.byte	104
	.byte	-104
	.byte	22
	.byte	-44
	.byte	-92
	.byte	92
	.byte	-52
	.byte	93
	.byte	101
	.byte	-74
	.byte	-110
	.byte	108
	.byte	112
	.byte	72
	.byte	80
	.byte	-3
	.byte	-19
	.byte	-71
	.byte	-38
	.byte	94
	.byte	21
	.byte	70
	.byte	87
	.byte	-89
	.byte	-115
	.byte	-99
	.byte	-124
	.byte	-112
	.byte	-40
	.byte	-85
	.byte	0
	.byte	-116
	.byte	-68
	.byte	-45
	.byte	10
	.byte	-9
	.byte	-28
	.byte	88
	.byte	5
	.byte	-72
	.byte	-77
	.byte	69
	.byte	6
	.byte	-48
	.byte	44
	.byte	30
	.byte	-113
	.byte	-54
	.byte	63
	.byte	15
	.byte	2
	.byte	-63
	.byte	-81
	.byte	-67
	.byte	3
	.byte	1
	.byte	19
	.byte	-118
	.byte	107
	.byte	58
	.byte	-111
	.byte	17
	.byte	65
	.byte	79
	.byte	103
	.byte	-36
	.byte	-22
	.byte	-105
	.byte	-14
	.byte	-49
	.byte	-50
	.byte	-16
	.byte	-76
	.byte	-26
	.byte	115
	.byte	-106
	.byte	-84
	.byte	116
	.byte	34
	.byte	-25
	.byte	-83
	.byte	53
	.byte	-123
	.byte	-30
	.byte	-7
	.byte	55
	.byte	-24
	.byte	28
	.byte	117
	.byte	-33
	.byte	110
	.byte	71
	.byte	-15
	.byte	26
	.byte	113
	.byte	29
	.byte	41
	.byte	-59
	.byte	-119
	.byte	111
	.byte	-73
	.byte	98
	.byte	14
	.byte	-86
	.byte	24
	.byte	-66
	.byte	27
	.byte	-4
	.byte	86
	.byte	62
	.byte	75
	.byte	-58
	.byte	-46
	.byte	121
	.byte	32
	.byte	-102
	.byte	-37
	.byte	-64
	.byte	-2
	.byte	120
	.byte	-51
	.byte	90
	.byte	-12
	.byte	31
	.byte	-35
	.byte	-88
	.byte	51
	.byte	-120
	.byte	7
	.byte	-57
	.byte	49
	.byte	-79
	.byte	18
	.byte	16
	.byte	89
	.byte	39
	.byte	-128
	.byte	-20
	.byte	95
	.byte	96
	.byte	81
	.byte	127
	.byte	-87
	.byte	25
	.byte	-75
	.byte	74
	.byte	13
	.byte	45
	.byte	-27
	.byte	122
	.byte	-97
	.byte	-109
	.byte	-55
	.byte	-100
	.byte	-17
	.byte	-96
	.byte	-32
	.byte	59
	.byte	77
	.byte	-82
	.byte	42
	.byte	-11
	.byte	-80
	.byte	-56
	.byte	-21
	.byte	-69
	.byte	60
	.byte	-125
	.byte	83
	.byte	-103
	.byte	97
	.byte	23
	.byte	43
	.byte	4
	.byte	126
	.byte	-70
	.byte	119
	.byte	-42
	.byte	38
	.byte	-31
	.byte	105
	.byte	20
	.byte	99
	.byte	85
	.byte	33
	.byte	12
	.byte	125
	.type	sbox, %object
	.size	sbox, 256
sbox:
	.byte	99
	.byte	124
	.byte	119
	.byte	123
	.byte	-14
	.byte	107
	.byte	111
	.byte	-59
	.byte	48
	.byte	1
	.byte	103
	.byte	43
	.byte	-2
	.byte	-41
	.byte	-85
	.byte	118
	.byte	-54
	.byte	-126
	.byte	-55
	.byte	125
	.byte	-6
	.byte	89
	.byte	71
	.byte	-16
	.byte	-83
	.byte	-44
	.byte	-94
	.byte	-81
	.byte	-100
	.byte	-92
	.byte	114
	.byte	-64
	.byte	-73
	.byte	-3
	.byte	-109
	.byte	38
	.byte	54
	.byte	63
	.byte	-9
	.byte	-52
	.byte	52
	.byte	-91
	.byte	-27
	.byte	-15
	.byte	113
	.byte	-40
	.byte	49
	.byte	21
	.byte	4
	.byte	-57
	.byte	35
	.byte	-61
	.byte	24
	.byte	-106
	.byte	5
	.byte	-102
	.byte	7
	.byte	18
	.byte	-128
	.byte	-30
	.byte	-21
	.byte	39
	.byte	-78
	.byte	117
	.byte	9
	.byte	-125
	.byte	44
	.byte	26
	.byte	27
	.byte	110
	.byte	90
	.byte	-96
	.byte	82
	.byte	59
	.byte	-42
	.byte	-77
	.byte	41
	.byte	-29
	.byte	47
	.byte	-124
	.byte	83
	.byte	-47
	.byte	0
	.byte	-19
	.byte	32
	.byte	-4
	.byte	-79
	.byte	91
	.byte	106
	.byte	-53
	.byte	-66
	.byte	57
	.byte	74
	.byte	76
	.byte	88
	.byte	-49
	.byte	-48
	.byte	-17
	.byte	-86
	.byte	-5
	.byte	67
	.byte	77
	.byte	51
	.byte	-123
	.byte	69
	.byte	-7
	.byte	2
	.byte	127
	.byte	80
	.byte	60
	.byte	-97
	.byte	-88
	.byte	81
	.byte	-93
	.byte	64
	.byte	-113
	.byte	-110
	.byte	-99
	.byte	56
	.byte	-11
	.byte	-68
	.byte	-74
	.byte	-38
	.byte	33
	.byte	16
	.byte	-1
	.byte	-13
	.byte	-46
	.byte	-51
	.byte	12
	.byte	19
	.byte	-20
	.byte	95
	.byte	-105
	.byte	68
	.byte	23
	.byte	-60
	.byte	-89
	.byte	126
	.byte	61
	.byte	100
	.byte	93
	.byte	25
	.byte	115
	.byte	96
	.byte	-127
	.byte	79
	.byte	-36
	.byte	34
	.byte	42
	.byte	-112
	.byte	-120
	.byte	70
	.byte	-18
	.byte	-72
	.byte	20
	.byte	-34
	.byte	94
	.byte	11
	.byte	-37
	.byte	-32
	.byte	50
	.byte	58
	.byte	10
	.byte	73
	.byte	6
	.byte	36
	.byte	92
	.byte	-62
	.byte	-45
	.byte	-84
	.byte	98
	.byte	-111
	.byte	-107
	.byte	-28
	.byte	121
	.byte	-25
	.byte	-56
	.byte	55
	.byte	109
	.byte	-115
	.byte	-43
	.byte	78
	.byte	-87
	.byte	108
	.byte	86
	.byte	-12
	.byte	-22
	.byte	101
	.byte	122
	.byte	-82
	.byte	8
	.byte	-70
	.byte	120
	.byte	37
	.byte	46
	.byte	28
	.byte	-90
	.byte	-76
	.byte	-58
	.byte	-24
	.byte	-35
	.byte	116
	.byte	31
	.byte	75
	.byte	-67
	.byte	-117
	.byte	-118
	.byte	112
	.byte	62
	.byte	-75
	.byte	102
	.byte	72
	.byte	3
	.byte	-10
	.byte	14
	.byte	97
	.byte	53
	.byte	87
	.byte	-71
	.byte	-122
	.byte	-63
	.byte	29
	.byte	-98
	.byte	-31
	.byte	-8
	.byte	-104
	.byte	17
	.byte	105
	.byte	-39
	.byte	-114
	.byte	-108
	.byte	-101
	.byte	30
	.byte	-121
	.byte	-23
	.byte	-50
	.byte	85
	.byte	40
	.byte	-33
	.byte	-116
	.byte	-95
	.byte	-119
	.byte	13
	.byte	-65
	.byte	-26
	.byte	66
	.byte	104
	.byte	65
	.byte	-103
	.byte	45
	.byte	15
	.byte	-80
	.byte	84
	.byte	-69
	.byte	22
	.text
.Letext0:
	.file 2 "/Developer/arm/gcc-arm-none-eabi/arm-none-eabi/include/machine/_default_types.h"
	.file 3 "/Developer/arm/gcc-arm-none-eabi/arm-none-eabi/include/sys/_stdint.h"
	.file 4 "/Developer/arm/gcc-arm-none-eabi/arm-none-eabi/include/sys/lock.h"
	.file 5 "/Developer/arm/gcc-arm-none-eabi/arm-none-eabi/include/sys/_types.h"
	.file 6 "/Developer/arm/gcc-arm-none-eabi/lib/gcc/arm-none-eabi/7.2.1/include/stddef.h"
	.file 7 "/Developer/arm/gcc-arm-none-eabi/arm-none-eabi/include/sys/reent.h"
	.file 8 "./include/aes.h"