	.cpu cortex-m0
	.eabi_attribute 20, 1
	.eabi_attribute 21, 1
	.eabi_attribute 23, 3
	.eabi_attribute 24, 1
	.eabi_attribute 25, 1
	.eabi_attribute 26, 1
	.eabi_attribute 30, 1
	.eabi_attribute 34, 0
	.eabi_attribute 18, 4
	.file	"cr_startup_lpc11xx.c"
	.text
.Ltext0:
	.cfi_sections	.debug_frame
	.section	.after_vectors,"ax",%progbits
	.align	1
	.weak	NMI_Handler
	.syntax unified
	.code	16
	.thumb_func
	.fpu softvfp
	.type	NMI_Handler, %function
NMI_Handler:
.LFB3:
	.file 1 "src/cr_startup_lpc11xx.c"
	.loc 1 696 0
	.cfi_startproc
	@ args = 0, pretend = 0, frame = 0
	@ frame_needed = 0, uses_anonymous_args = 0
	@ link register save eliminated.
.L2:
	b	.L2
	.cfi_endproc
.LFE3:
	.size	NMI_Handler, .-NMI_Handler
	.align	1
	.weak	HardFault_Handler
	.syntax unified
	.code	16
	.thumb_func
	.fpu softvfp
	.type	HardFault_Handler, %function
HardFault_Handler:
.LFB4:
	.loc 1 703 0
	.cfi_startproc
	@ args = 0, pretend = 0, frame = 0
	@ frame_needed = 0, uses_anonymous_args = 0
	@ link register save eliminated.
.L4:
	b	.L4
	.cfi_endproc
.LFE4:
	.size	HardFault_Handler, .-HardFault_Handler
	.align	1
	.weak	SVC_Handler
	.syntax unified
	.code	16
	.thumb_func
	.fpu softvfp
	.type	SVC_Handler, %function
SVC_Handler:
.LFB5:
	.loc 1 710 0
	.cfi_startproc
	@ args = 0, pretend = 0, frame = 0
	@ frame_needed = 0, uses_anonymous_args = 0
	@ link register save eliminated.
.L6:
	b	.L6
	.cfi_endproc
.LFE5:
	.size	SVC_Handler, .-SVC_Handler
	.align	1
	.weak	PendSV_Handler
	.syntax unified
	.code	16
	.thumb_func
	.fpu softvfp
	.type	PendSV_Handler, %function
PendSV_Handler:
.LFB6:
	.loc 1 717 0
	.cfi_startproc
	@ args = 0, pretend = 0, frame = 0
	@ frame_needed = 0, uses_anonymous_args = 0
	@ link register save eliminated.
.L8:
	b	.L8
	.cfi_endproc
.LFE6:
	.size	PendSV_Handler, .-PendSV_Handler
	.align	1
	.weak	SysTick_Handler
	.syntax unified
	.code	16
	.thumb_func
	.fpu softvfp
	.type	SysTick_Handler, %function
SysTick_Handler:
.LFB7:
	.loc 1 724 0
	.cfi_startproc
	@ args = 0, pretend = 0, frame = 0
	@ frame_needed = 0, uses_anonymous_args = 0
	@ link register save eliminated.
.L10:
	b	.L10
	.cfi_endproc
.LFE7:
	.size	SysTick_Handler, .-SysTick_Handler
	.align	1
	.weak	IntDefaultHandler
	.syntax unified
	.code	16
	.thumb_func
	.fpu softvfp
	.type	IntDefaultHandler, %function
IntDefaultHandler:
.LFB8:
	.loc 1 738 0
	.cfi_startproc
	@ Volatile: function does not return.
	@ args = 0, pretend = 0, frame = 0
	@ frame_needed = 0, uses_anonymous_args = 0
	@ link register save eliminated.
.L12:
	b	.L12
	.cfi_endproc
.LFE8:
	.size	IntDefaultHandler, .-IntDefaultHandler
	.weak	WAKEUP_IRQHandler
	.thumb_set WAKEUP_IRQHandler,IntDefaultHandler
	.weak	PIOINT0_IRQHandler
	.thumb_set PIOINT0_IRQHandler,IntDefaultHandler
	.weak	PIOINT1_IRQHandler
	.thumb_set PIOINT1_IRQHandler,IntDefaultHandler
	.weak	PIOINT2_IRQHandler
	.thumb_set PIOINT2_IRQHandler,IntDefaultHandler
	.weak	PIOINT3_IRQHandler
	.thumb_set PIOINT3_IRQHandler,IntDefaultHandler
	.weak	BOD_IRQHandler
	.thumb_set BOD_IRQHandler,IntDefaultHandler
	.weak	WDT_IRQHandler
	.thumb_set WDT_IRQHandler,IntDefaultHandler
	.weak	ADC_IRQHandler
	.thumb_set ADC_IRQHandler,IntDefaultHandler
	.weak	UART_IRQHandler
	.thumb_set UART_IRQHandler,IntDefaultHandler
	.weak	SSP0_IRQHandler
	.thumb_set SSP0_IRQHandler,IntDefaultHandler
	.weak	TIMER32_1_IRQHandler
	.thumb_set TIMER32_1_IRQHandler,IntDefaultHandler
	.weak	TIMER32_0_IRQHandler
	.thumb_set TIMER32_0_IRQHandler,IntDefaultHandler
	.weak	TIMER16_1_IRQHandler
	.thumb_set TIMER16_1_IRQHandler,IntDefaultHandler
	.weak	TIMER16_0_IRQHandler
	.thumb_set TIMER16_0_IRQHandler,IntDefaultHandler
	.weak	I2C_IRQHandler
	.thumb_set I2C_IRQHandler,IntDefaultHandler
	.weak	SSP1_IRQHandler
	.thumb_set SSP1_IRQHandler,IntDefaultHandler
	.weak	CAN_IRQHandler
	.thumb_set CAN_IRQHandler,IntDefaultHandler
	.align	1
	.global	data_init
	.syntax unified
	.code	16
	.thumb_func
	.fpu softvfp
	.type	data_init, %function
data_init:
.LFB0:
	.loc 1 567 0
	.cfi_startproc
	@ args = 0, pretend = 0, frame = 0
	@ frame_needed = 0, uses_anonymous_args = 0
.LVL0:
	.loc 1 567 0
	push	{r4, r5, lr}
	.cfi_def_cfa_offset 12
	.cfi_offset 4, -12
	.cfi_offset 5, -8
	.cfi_offset 14, -4
.LVL1:
	.loc 1 569 0
	movs	r4, r0
.LVL2:
	.loc 1 571 0
	cmp	r2, #0
	beq	.L13
	.loc 1 572 0
	subs	r1, r1, r0
.LVL3:
.L15:
	.loc 1 572 0 is_stmt 0 discriminator 3
	adds	r3, r4, #4
.LVL4:
	ldr	r5, [r4]
	str	r5, [r4, r1]
.LVL5:
	movs	r4, r3
	.loc 1 571 0 is_stmt 1 discriminator 3
	subs	r3, r3, r0
.LVL6:
	cmp	r2, r3
	bhi	.L15
.LVL7:
.L13:
	.loc 1 573 0
	@ sp needed
.LVL8:
	pop	{r4, r5, pc}
	.cfi_endproc
.LFE0:
	.size	data_init, .-data_init
	.align	1
	.global	bss_init
	.syntax unified
	.code	16
	.thumb_func
	.fpu softvfp
	.type	bss_init, %function
bss_init:
.LFB1:
	.loc 1 576 0
	.cfi_startproc
	@ args = 0, pretend = 0, frame = 0
	@ frame_needed = 0, uses_anonymous_args = 0
.LVL9:
	push	{r4, lr}
	.cfi_def_cfa_offset 8
	.cfi_offset 4, -8
	.cfi_offset 14, -4
	.loc 1 577 0
	movs	r2, r0
.LVL10:
	.loc 1 579 0
	cmp	r1, #0
	beq	.L17
	.loc 1 580 0
	movs	r4, #0
.LVL11:
.L19:
	.loc 1 580 0 is_stmt 0 discriminator 3
	adds	r3, r2, #4
.LVL12:
	str	r4, [r2]
.LVL13:
	movs	r2, r3
	.loc 1 579 0 is_stmt 1 discriminator 3
	subs	r3, r3, r0
.LVL14:
	cmp	r3, r1
	bcc	.L19
.LVL15:
.L17:
	.loc 1 581 0
	@ sp needed
	pop	{r4, pc}
	.cfi_endproc
.LFE1:
	.size	bss_init, .-bss_init
	.align	1
	.global	ResetISR
	.syntax unified
	.code	16
	.thumb_func
	.fpu softvfp
	.type	ResetISR, %function
ResetISR:
.LFB2:
	.loc 1 622 0
	.cfi_startproc
	@ args = 0, pretend = 0, frame = 0
	@ frame_needed = 0, uses_anonymous_args = 0
	push	{r4, r5, r6, lr}
	.cfi_def_cfa_offset 16
	.cfi_offset 4, -16
	.cfi_offset 5, -12
	.cfi_offset 6, -8
	.cfi_offset 14, -4
.LVL16:
	.loc 1 635 0
	ldr	r2, .L30
	ldr	r3, .L30+4
	cmp	r2, r3
	bcs	.L27
	.loc 1 632 0
	movs	r4, r2
	.loc 1 635 0
	movs	r5, r3
.LVL17:
.L23:
	.loc 1 636 0
	ldr	r0, [r4]
.LVL18:
	.loc 1 637 0
	ldr	r1, [r4, #4]
.LVL19:
	adds	r4, r4, #12
.LVL20:
	.loc 1 638 0
	subs	r3, r4, #4
.LVL21:
	.loc 1 639 0
	ldr	r2, [r3]
	bl	data_init
.LVL22:
	.loc 1 635 0
	cmp	r4, r5
	bcc	.L23
.LVL23:
.L22:
	.loc 1 643 0
	ldr	r3, .L30+8
	cmp	r4, r3
	bcs	.L24
	movs	r5, r4
	adds	r4, r4, #8
.LVL24:
	adds	r3, r3, #7
	subs	r3, r3, r4
	movs	r2, #7
	bics	r3, r2
	adds	r4, r3, r4
.LVL25:
.L25:
	.loc 1 646 0
	ldr	r1, [r5, #4]
	ldr	r0, [r5]
	bl	bss_init
.LVL26:
	adds	r5, r5, #8
.LVL27:
	.loc 1 643 0
	cmp	r5, r4
	bne	.L25
.LVL28:
.L24:
	.loc 1 667 0
	bl	SystemInit
.LVL29:
	.loc 1 680 0
	bl	main
.LVL30:
.L26:
	b	.L26
.LVL31:
.L27:
	.loc 1 632 0
	ldr	r4, .L30
	b	.L22
.L31:
	.align	2
.L30:
	.word	__data_section_table
	.word	__data_section_table_end
	.word	__bss_section_table_end
	.cfi_endproc
.LFE2:
	.size	ResetISR, .-ResetISR
	.global	g_pfnVectors
	.section	.isr_vector,"a",%progbits
	.align	2
	.type	g_pfnVectors, %object
	.size	g_pfnVectors, 192
g_pfnVectors:
	.word	_vStackTop
	.word	ResetISR
	.word	NMI_Handler
	.word	HardFault_Handler
	.word	0
	.word	0
	.word	0
	.word	0
	.word	0
	.word	0
	.word	0
	.word	SVC_Handler
	.word	0
	.word	0
	.word	PendSV_Handler
	.word	SysTick_Handler
	.word	WAKEUP_IRQHandler
	.word	WAKEUP_IRQHandler
	.word	WAKEUP_IRQHandler
	.word	WAKEUP_IRQHandler
	.word	WAKEUP_IRQHandler
	.word	WAKEUP_IRQHandler
	.word	WAKEUP_IRQHandler
	.word	WAKEUP_IRQHandler
	.word	WAKEUP_IRQHandler
	.word	WAKEUP_IRQHandler
	.word	WAKEUP_IRQHandler
	.word	WAKEUP_IRQHandler
	.word	WAKEUP_IRQHandler
	.word	CAN_IRQHandler
	.word	SSP1_IRQHandler
	.word	I2C_IRQHandler
	.word	TIMER16_0_IRQHandler
	.word	TIMER16_1_IRQHandler
	.word	TIMER32_0_IRQHandler
	.word	TIMER32_1_IRQHandler
	.word	SSP0_IRQHandler
	.word	UART_IRQHandler
	.word	0
	.word	0
	.word	ADC_IRQHandler
	.word	WDT_IRQHandler
	.word	BOD_IRQHandler
	.word	0
	.word	PIOINT3_IRQHandler
	.word	PIOINT2_IRQHandler
	.word	PIOINT1_IRQHandler
	.word	PIOINT0_IRQHandler
	.text
.Letext0: