	.cpu cortex-m0
	.eabi_attribute 20, 1
	.eabi_attribute 21, 1
	.eabi_attribute 23, 3
	.eabi_attribute 24, 1
	.eabi_attribute 25, 1
	.eabi_attribute 26, 1
	.eabi_attribute 30, 1
	.eabi_attribute 34, 0
	.eabi_attribute 18, 4
	.file	"main.c"
	.text
.Ltext0:
	.cfi_sections	.debug_frame
	.section	.text.main,"ax",%progbits
	.align	1
	.global	main
	.syntax unified
	.code	16
	.thumb_func
	.fpu softvfp
	.type	main, %function
main:
.LFB201:
	.file 1 "src/main.c"
	.loc 1 64 0
	.cfi_startproc
	@ args = 0, pretend = 0, frame = 176
	@ frame_needed = 0, uses_anonymous_args = 0
	push	{r4, r5, r6, r7, lr}
	.cfi_def_cfa_offset 20
	.cfi_offset 4, -20
	.cfi_offset 5, -16
	.cfi_offset 6, -12
	.cfi_offset 7, -8
	.cfi_offset 14, -4
	mov	lr, r9
	mov	r7, r8
	push	{r7, lr}
	.cfi_def_cfa_offset 28
	.cfi_offset 8, -28
	.cfi_offset 9, -24
	sub	sp, sp, #180
	.cfi_def_cfa_offset 208
	.loc 1 66 0
	bl	SystemCoreClockUpdate
.LVL0:
	.loc 1 73 0
	movs	r4, #160
	lsls	r4, r4, #23
	movs	r0, r4
	bl	Chip_GPIO_Init
.LVL1:
.LBB15:
.LBB16:
	.file 2 "../lpcopen/lpc_chip_11cxx_lib/inc/gpio_11xx_2.h"
	.loc 2 155 0
	movs	r2, #128
	lsls	r2, r2, #8
	ldr	r3, [r4, r2]
	movs	r1, #8
	orrs	r3, r1
	str	r3, [r4, r2]
.LVL2:
.LBE16:
.LBE15:
.LBB17:
.LBB18:
	.loc 2 375 0
	movs	r3, #0
	str	r3, [r4, #32]
.LVL3:
.LBE18:
.LBE17:
	.loc 1 79 0
	bl	uart_init
.LVL4:
	.loc 1 84 0
	ldr	r1, .L14
	mov	r0, sp
	bl	AES_init_ctx
.LVL5:
	.loc 1 85 0
	ldr	r0, .L14+4
	bl	printf
.LVL6:
	.loc 1 86 0
	ldr	r0, .L14+8
	bl	printf
.LVL7:
	ldr	r6, .L14+12
	adds	r6, r6, #16
	ldr	r7, .L14+12
.LBB19:
	.loc 1 87 0
	ldr	r4, .L14+16
.LVL8:
.L2:
	.loc 1 87 0 is_stmt 0 discriminator 3
	ldrb	r1, [r7]
	movs	r0, r4
	bl	printf
.LVL9:
	adds	r7, r7, #1
.LVL10:
	cmp	r7, r6
	bne	.L2
.LBE19:
	.loc 1 88 0 is_stmt 1
	ldr	r0, .L14+20
	bl	printf
.LVL11:
.LBB20:
.LBB21:
	.loc 2 333 0
	movs	r3, #160
	lsls	r3, r3, #23
	mov	r9, r3
	movs	r3, #8
	mov	r8, r3
	b	.L7
.LVL12:
.L13:
.LBE21:
.LBE20:
	.loc 1 115 0
	ldr	r0, .L14+20
	bl	printf
.LVL13:
.LBB23:
.LBB24:
	.loc 2 375 0
	movs	r3, #0
	mov	r2, r9
	str	r3, [r2, #32]
.LVL14:
	movs	r3, #250
	lsls	r3, r3, #2
.LVL15:
.L6:
	subs	r3, r3, #1
.LVL16:
	uxth	r3, r3
.LBE24:
.LBE23:
.LBB25:
	.loc 1 121 0 discriminator 3
	cmp	r3, #0
	bne	.L6
.L7:
.LVL17:
.LBE25:
.LBB26:
.LBB22:
	.loc 2 333 0
	mov	r3, r9
	mov	r2, r8
	str	r2, [r3, #32]
.LVL18:
.LBE22:
.LBE26:
	.loc 1 103 0
	ldr	r1, .L14+12
	mov	r0, sp
	bl	AES_ECB_encrypt
.LVL19:
	.loc 1 104 0
	ldr	r0, .L14+24
	bl	printf
.LVL20:
	ldr	r5, .L14+12
.LBB27:
	.loc 1 105 0
	ldr	r4, .L14+16
.LVL21:
.L3:
	.loc 1 105 0 is_stmt 0 discriminator 3
	ldrb	r1, [r5]
	movs	r0, r4
	bl	printf
.LVL22:
	adds	r5, r5, #1
.LVL23:
	cmp	r5, r7
	bne	.L3
.LBE27:
	.loc 1 106 0 is_stmt 1
	ldr	r0, .L14+20
	bl	printf
.LVL24:
	movs	r3, #250
	lsls	r3, r3, #2
.LVL25:
.L4:
	subs	r3, r3, #1
.LVL26:
	uxth	r3, r3
.LBB28:
	.loc 1 109 0 discriminator 3
	cmp	r3, #0
	bne	.L4
.LBE28:
	.loc 1 112 0
	ldr	r1, .L14+12
	mov	r0, sp
	bl	AES_ECB_decrypt
.LVL27:
	.loc 1 113 0
	ldr	r0, .L14+28
	bl	printf
.LVL28:
	ldr	r6, .L14+12
.LBB29:
	.loc 1 114 0
	ldr	r4, .L14+16
.LVL29:
.L5:
	.loc 1 114 0 is_stmt 0 discriminator 3
	ldrb	r1, [r6]
	movs	r0, r4
	bl	printf
.LVL30:
	adds	r6, r6, #1
.LVL31:
	cmp	r6, r5
	bne	.L5
	b	.L13
.L15:
	.align	2
.L14:
	.word	.LANCHOR0
	.word	.LC4
	.word	.LC6
	.word	.LANCHOR1
	.word	.LC9
	.word	.LC11
	.word	.LC13
	.word	.LC15
.LBE29:
	.cfi_endproc
.LFE201:
	.size	main, .-main
	.global	input_text
	.global	key
	.section	.data.input_text,"aw",%progbits
	.align	2
	.set	.LANCHOR1,. + 0
	.type	input_text, %object
	.size	input_text, 16
input_text:
	.byte	65
	.byte	66
	.byte	67
	.byte	68
	.byte	69
	.byte	70
	.byte	71
	.byte	72
	.byte	49
	.byte	50
	.byte	51
	.byte	52
	.byte	53
	.byte	54
	.byte	55
	.byte	56
	.section	.data.key,"aw",%progbits
	.align	2
	.set	.LANCHOR0,. + 0
	.type	key, %object
	.size	key, 16
key:
	.byte	43
	.byte	126
	.byte	21
	.byte	22
	.byte	40
	.byte	-82
	.byte	-46
	.byte	-90
	.byte	-85
	.byte	-9
	.byte	21
	.byte	-120
	.byte	9
	.byte	-49
	.byte	79
	.byte	60
	.section	.rodata.main.str1.4,"aMS",%progbits,1
	.align	2
.LC4:
	.ascii	"AES encryption and decryption.\012\000"
.LC6:
	.ascii	"Original text: \000"
.LC9:
	.ascii	"%c\000"
	.space	1
.LC11:
	.ascii	"\012\000"
	.space	2
.LC13:
	.ascii	"Encrypted text: \000"
	.space	3
.LC15:
	.ascii	"Decrypted text: \000"
	.text
.Letext0:
	.file 3 "/Developer/arm/gcc-arm-none-eabi/arm-none-eabi/include/machine/_default_types.h"
	.file 4 "/Developer/arm/gcc-arm-none-eabi/arm-none-eabi/include/sys/_stdint.h"
	.file 5 "../lpcopen/lpc_chip_11cxx_lib/inc/chip.h"
	.file 6 "/Developer/arm/gcc-arm-none-eabi/arm-none-eabi/include/sys/lock.h"
	.file 7 "/Developer/arm/gcc-arm-none-eabi/arm-none-eabi/include/sys/_types.h"
	.file 8 "/Developer/arm/gcc-arm-none-eabi/lib/gcc/arm-none-eabi/7.2.1/include/stddef.h"
	.file 9 "/Developer/arm/gcc-arm-none-eabi/arm-none-eabi/include/sys/reent.h"
	.file 10 "./include/aes.h"
	.file 11 "/Developer/arm/gcc-arm-none-eabi/arm-none-eabi/include/stdio.h"
	.file 12 "./include/utils.h"