	.cpu cortex-m0
	.eabi_attribute 20, 1
	.eabi_attribute 21, 1
	.eabi_attribute 23, 3
	.eabi_attribute 24, 1
	.eabi_attribute 25, 1
	.eabi_attribute 26, 1
	.eabi_attribute 30, 1
	.eabi_attribute 34, 0
	.eabi_attribute 18, 4
	.file	"utils.c"
	.text
.Ltext0:
	.cfi_sections	.debug_frame
	.section	.text.uart_init,"ax",%progbits
	.align	1
	.global	uart_init
	.syntax unified
	.code	16
	.thumb_func
	.fpu softvfp
	.type	uart_init, %function
uart_init:
.LFB201:
	.file 1 "src/utils.c"
	.loc 1 15 0
	.cfi_startproc
	@ args = 0, pretend = 0, frame = 0
	@ frame_needed = 0, uses_anonymous_args = 0
	push	{r4, lr}
	.cfi_def_cfa_offset 8
	.cfi_offset 4, -8
	.cfi_offset 14, -4
.LVL0:
.LBB14:
.LBB15:
	.file 2 "../lpcopen/lpc_chip_11cxx_lib/inc/iocon_11xx.h"
	.loc 2 251 0
	ldr	r3, .L2
	movs	r2, #1
	movs	r1, #164
	str	r2, [r3, r1]
.LVL1:
.LBE15:
.LBE14:
.LBB16:
.LBB17:
	adds	r1, r1, #4
	str	r2, [r3, r1]
.LVL2:
.LBE17:
.LBE16:
	.loc 1 24 0
	ldr	r4, .L2+4
	movs	r0, r4
	bl	Chip_UART_Init
.LVL3:
	.loc 1 25 0
	movs	r1, #225
	lsls	r1, r1, #9
	movs	r0, r4
	bl	Chip_UART_SetBaud
.LVL4:
.LBB18:
.LBB19:
	.file 3 "../lpcopen/lpc_chip_11cxx_lib/inc/uart_11xx.h"
	.loc 3 421 0
	movs	r3, #3
	str	r3, [r4, #12]
.LVL5:
.LBE19:
.LBE18:
.LBB20:
.LBB21:
	.loc 3 406 0
	movs	r3, #0
	str	r3, [r4, #8]
.LVL6:
.LBE21:
.LBE20:
.LBB22:
.LBB23:
	.loc 3 302 0
	adds	r3, r3, #128
	str	r3, [r4, #48]
.LVL7:
.LBE23:
.LBE22:
	.loc 1 44 0
	@ sp needed
	pop	{r4, pc}
.L3:
	.align	2
.L2:
	.word	1074020352
	.word	1073774592
	.cfi_endproc
.LFE201:
	.size	uart_init, .-uart_init
	.section	.text.UART_IRQHandler,"ax",%progbits
	.align	1
	.global	UART_IRQHandler
	.syntax unified
	.code	16
	.thumb_func
	.fpu softvfp
	.type	UART_IRQHandler, %function
UART_IRQHandler:
.LFB202:
	.loc 1 51 0
	.cfi_startproc
	@ args = 0, pretend = 0, frame = 0
	@ frame_needed = 0, uses_anonymous_args = 0
	@ link register save eliminated.
.LVL8:
.LBB24:
.LBB25:
	.loc 3 338 0
	ldr	r3, .L5
	ldr	r3, [r3]
.LVL9:
.LBE25:
.LBE24:
	.loc 1 55 0
	@ sp needed
	bx	lr
.L6:
	.align	2
.L5:
	.word	1073774592
	.cfi_endproc
.LFE202:
	.size	UART_IRQHandler, .-UART_IRQHandler
	.section	.text._write,"ax",%progbits
	.align	1
	.global	_write
	.syntax unified
	.code	16
	.thumb_func
	.fpu softvfp
	.type	_write, %function
_write:
.LFB203:
	.loc 1 62 0
	.cfi_startproc
	@ args = 0, pretend = 0, frame = 0
	@ frame_needed = 0, uses_anonymous_args = 0
.LVL10:
	push	{r4, lr}
	.cfi_def_cfa_offset 8
	.cfi_offset 4, -8
	.cfi_offset 14, -4
	movs	r4, r2
	.loc 1 63 0
	ldr	r0, .L8
.LVL11:
	bl	Chip_UART_SendBlocking
.LVL12:
	.loc 1 64 0
	subs	r0, r4, r0
.LVL13:
	.loc 1 65 0
	@ sp needed
.LVL14:
	pop	{r4, pc}
.L9:
	.align	2
.L8:
	.word	1073774592
	.cfi_endproc
.LFE203:
	.size	_write, .-_write
	.text
.Letext0:
	.file 4 "/Developer/arm/gcc-arm-none-eabi/arm-none-eabi/include/machine/_default_types.h"
	.file 5 "/Developer/arm/gcc-arm-none-eabi/arm-none-eabi/include/sys/lock.h"
	.file 6 "/Developer/arm/gcc-arm-none-eabi/arm-none-eabi/include/sys/_types.h"
	.file 7 "/Developer/arm/gcc-arm-none-eabi/lib/gcc/arm-none-eabi/7.2.1/include/stddef.h"
	.file 8 "/Developer/arm/gcc-arm-none-eabi/arm-none-eabi/include/sys/reent.h"
	.file 9 "/Developer/arm/gcc-arm-none-eabi/arm-none-eabi/include/sys/_stdint.h"
	.file 10 "../lpcopen/lpc_chip_11cxx_lib/inc/chip.h"