	.cpu cortex-m0
	.eabi_attribute 20, 1
	.eabi_attribute 21, 1
	.eabi_attribute 23, 3
	.eabi_attribute 24, 1
	.eabi_attribute 25, 1
	.eabi_attribute 26, 1
	.eabi_attribute 30, 1
	.eabi_attribute 34, 0
	.eabi_attribute 18, 4
	.file	"adc_11xx.c"
	.text
.Ltext0:
	.cfi_sections	.debug_frame
	.section	.text.setStartMode,"ax",%progbits
	.align	1
	.global	setStartMode
	.syntax unified
	.code	16
	.thumb_func
	.fpu softvfp
	.type	setStartMode, %function
setStartMode:
.LFB200:
	.file 1 "src/adc_11xx.c"
	.loc 1 83 0
	.cfi_startproc
	@ args = 0, pretend = 0, frame = 0
	@ frame_needed = 0, uses_anonymous_args = 0
	@ link register save eliminated.
.LVL0:
	.loc 1 85 0
	ldr	r3, [r0]
.LVL1:
	.loc 1 86 0
	lsls	r1, r1, #24
.LVL2:
	.loc 1 85 0
	ldr	r2, .L2
	ands	r3, r2
.LVL3:
	.loc 1 86 0
	orrs	r1, r3
	str	r1, [r0]
	.loc 1 87 0
	@ sp needed
	bx	lr
.L3:
	.align	2
.L2:
	.word	-117440513
	.cfi_endproc
.LFE200:
	.size	setStartMode, .-setStartMode
	.section	.text.readAdcVal,"ax",%progbits
	.align	1
	.global	readAdcVal
	.syntax unified
	.code	16
	.thumb_func
	.fpu softvfp
	.type	readAdcVal, %function
readAdcVal:
.LFB201:
	.loc 1 91 0
	.cfi_startproc
	@ args = 0, pretend = 0, frame = 0
	@ frame_needed = 0, uses_anonymous_args = 0
	@ link register save eliminated.
.LVL4:
	.loc 1 93 0
	adds	r1, r1, #4
.LVL5:
	lsls	r1, r1, #2
	ldr	r3, [r1, r0]
.LVL6:
	.loc 1 95 0
	movs	r0, #0
.LVL7:
	.loc 1 94 0
	cmp	r3, #0
	blt	.L7
.LVL8:
.L5:
	.loc 1 101 0
	@ sp needed
	bx	lr
.LVL9:
.L7:
	.loc 1 99 0
	lsls	r3, r3, #16
.LVL10:
	lsrs	r3, r3, #22
	strh	r3, [r2]
	.loc 1 100 0
	adds	r0, r0, #1
	b	.L5
	.cfi_endproc
.LFE201:
	.size	readAdcVal, .-readAdcVal
	.global	__aeabi_uidiv
	.section	.text.Chip_ADC_Init,"ax",%progbits
	.align	1
	.global	Chip_ADC_Init
	.syntax unified
	.code	16
	.thumb_func
	.fpu softvfp
	.type	Chip_ADC_Init, %function
Chip_ADC_Init:
.LFB202:
	.loc 1 109 0
	.cfi_startproc
	@ args = 0, pretend = 0, frame = 0
	@ frame_needed = 0, uses_anonymous_args = 0
.LVL11:
	push	{r4, r5, r6, lr}
	.cfi_def_cfa_offset 16
	.cfi_offset 4, -16
	.cfi_offset 5, -12
	.cfi_offset 6, -8
	.cfi_offset 14, -4
	movs	r4, r0
	movs	r5, r1
.LVL12:
	.loc 1 114 0
	movs	r0, #16
.LVL13:
	bl	Chip_SYSCTL_PowerUp
.LVL14:
.LBB12:
.LBB13:
	.file 2 "./inc/clock_11xx.h"
	.loc 2 297 0
	ldr	r1, .L9
	movs	r2, #128
	ldr	r0, [r1, r2]
	movs	r3, #128
	lsls	r3, r3, #6
	orrs	r3, r0
	str	r3, [r1, r2]
.LVL15:
.LBE13:
.LBE12:
	.loc 1 118 0
	movs	r3, #0
	str	r3, [r4, #12]
.LVL16:
	.loc 1 122 0
	ldr	r2, .L9+4
	str	r2, [r5]
	.loc 1 123 0
	strb	r3, [r5, #4]
.LVL17:
	.loc 1 126 0
	strb	r3, [r5, #5]
.LVL18:
.LBB14:
.LBB15:
	.loc 1 67 0
	bl	Chip_Clock_GetSystemClockRate
.LVL19:
	.loc 1 77 0
	lsls	r0, r0, #1
.LVL20:
	ldr	r3, .L9+8
	mov	ip, r3
	add	r0, r0, ip
.LVL21:
	ldr	r1, .L9+12
	bl	__aeabi_uidiv
.LVL22:
	subs	r0, r0, #1
.LBE15:
.LBE14:
	.loc 1 128 0
	uxtb	r0, r0
	lsls	r0, r0, #8
	.loc 1 129 0
	ldrb	r3, [r5, #4]
	lsls	r3, r3, #17
	movs	r2, #224
	lsls	r2, r2, #12
	ands	r3, r2
	movs	r2, #128
	lsls	r2, r2, #14
	orrs	r3, r2
	orrs	r0, r3
.LVL23:
	.loc 1 130 0
	str	r0, [r4]
	.loc 1 131 0
	@ sp needed
.LVL24:
.LVL25:
	pop	{r4, r5, r6, pc}
.L10:
	.align	2
.L9:
	.word	1074036736
	.word	400000
	.word	4400000
	.word	8800000
	.cfi_endproc
.LFE202:
	.size	Chip_ADC_Init, .-Chip_ADC_Init
	.section	.text.Chip_ADC_DeInit,"ax",%progbits
	.align	1
	.global	Chip_ADC_DeInit
	.syntax unified
	.code	16
	.thumb_func
	.fpu softvfp
	.type	Chip_ADC_DeInit, %function
Chip_ADC_DeInit:
.LFB203:
	.loc 1 135 0
	.cfi_startproc
	@ args = 0, pretend = 0, frame = 0
	@ frame_needed = 0, uses_anonymous_args = 0
.LVL26:
	push	{r4, lr}
	.cfi_def_cfa_offset 8
	.cfi_offset 4, -8
	.cfi_offset 14, -4
	.loc 1 136 0
	movs	r3, #128
	lsls	r3, r3, #1
	str	r3, [r0, #12]
	.loc 1 137 0
	movs	r3, #0
	str	r3, [r0]
.LVL27:
.LBB16:
.LBB17:
	.loc 2 307 0
	ldr	r1, .L12
	movs	r2, #128
	ldr	r3, [r1, r2]
	ldr	r0, .L12+4
.LVL28:
	ands	r3, r0
	str	r3, [r1, r2]
.LVL29:
.LBE17:
.LBE16:
	.loc 1 139 0
	movs	r0, #16
	bl	Chip_SYSCTL_PowerDown
.LVL30:
	.loc 1 140 0
	@ sp needed
	pop	{r4, pc}
.L13:
	.align	2
.L12:
	.word	1074036736
	.word	-8193
	.cfi_endproc
.LFE203:
	.size	Chip_ADC_DeInit, .-Chip_ADC_DeInit
	.section	.text.Chip_ADC_ReadValue,"ax",%progbits
	.align	1
	.global	Chip_ADC_ReadValue
	.syntax unified
	.code	16
	.thumb_func
	.fpu softvfp
	.type	Chip_ADC_ReadValue, %function
Chip_ADC_ReadValue:
.LFB204:
	.loc 1 144 0
	.cfi_startproc
	@ args = 0, pretend = 0, frame = 0
	@ frame_needed = 0, uses_anonymous_args = 0
	@ link register save eliminated.
.LVL31:
.LBB20:
.LBB21:
	.loc 1 93 0
	adds	r1, r1, #4
.LVL32:
	lsls	r1, r1, #2
	ldr	r3, [r1, r0]
.LVL33:
	.loc 1 95 0
	movs	r0, #0
.LVL34:
	.loc 1 94 0
	cmp	r3, #0
	blt	.L17
.LVL35:
.L15:
.LBE21:
.LBE20:
	.loc 1 146 0
	@ sp needed
	bx	lr
.LVL36:
.L17:
.LBB23:
.LBB22:
	.loc 1 99 0
	lsls	r3, r3, #16
.LVL37:
	lsrs	r3, r3, #22
	strh	r3, [r2]
	.loc 1 100 0
	adds	r0, r0, #1
	b	.L15
.LBE22:
.LBE23:
	.cfi_endproc
.LFE204:
	.size	Chip_ADC_ReadValue, .-Chip_ADC_ReadValue
	.section	.text.Chip_ADC_ReadStatus,"ax",%progbits
	.align	1
	.global	Chip_ADC_ReadStatus
	.syntax unified
	.code	16
	.thumb_func
	.fpu softvfp
	.type	Chip_ADC_ReadStatus, %function
Chip_ADC_ReadStatus:
.LFB205:
	.loc 1 150 0
	.cfi_startproc
	@ args = 0, pretend = 0, frame = 0
	@ frame_needed = 0, uses_anonymous_args = 0
	@ link register save eliminated.
.LVL38:
	.loc 1 151 0
	cmp	r2, #1
	beq	.L20
	cmp	r2, #0
	beq	.L21
	cmp	r2, #2
	beq	.L22
	.loc 1 165 0
	movs	r0, #0
.LVL39:
	b	.L19
.LVL40:
.L21:
	.loc 1 153 0
	ldr	r3, [r0, #48]
	lsrs	r3, r3, r1
	movs	r0, #1
.LVL41:
	ands	r0, r3
.LVL42:
.L19:
	.loc 1 166 0
	@ sp needed
	bx	lr
.LVL43:
.L20:
	.loc 1 157 0
	ldr	r3, [r0, #48]
	.loc 1 156 0
	adds	r1, r1, #8
.LVL44:
	.loc 1 157 0
	uxtb	r1, r1
	lsrs	r3, r3, r1
	movs	r0, #1
.LVL45:
	ands	r0, r3
	b	.L19
.LVL46:
.L22:
	.loc 1 160 0
	ldr	r0, [r0, #48]
.LVL47:
	lsrs	r0, r0, #16
	subs	r3, r0, #1
	sbcs	r0, r0, r3
	uxtb	r0, r0
	b	.L19
	.cfi_endproc
.LFE205:
	.size	Chip_ADC_ReadStatus, .-Chip_ADC_ReadStatus
	.section	.text.Chip_ADC_Int_SetChannelCmd,"ax",%progbits
	.align	1
	.global	Chip_ADC_Int_SetChannelCmd
	.syntax unified
	.code	16
	.thumb_func
	.fpu softvfp
	.type	Chip_ADC_Int_SetChannelCmd, %function
Chip_ADC_Int_SetChannelCmd:
.LFB206:
	.loc 1 170 0
	.cfi_startproc
	@ args = 0, pretend = 0, frame = 0
	@ frame_needed = 0, uses_anonymous_args = 0
	@ link register save eliminated.
.LVL48:
	.loc 1 171 0
	cmp	r2, #1
	beq	.L28
	.loc 1 175 0
	ldr	r3, [r0, #12]
	movs	r2, #1
.LVL49:
	lsls	r2, r2, r1
	bics	r3, r2
	str	r3, [r0, #12]
.L25:
	.loc 1 177 0
	@ sp needed
	bx	lr
.LVL50:
.L28:
	.loc 1 172 0
	ldr	r2, [r0, #12]
.LVL51:
	movs	r3, #1
	lsls	r3, r3, r1
	orrs	r3, r2
	str	r3, [r0, #12]
	b	.L25
	.cfi_endproc
.LFE206:
	.size	Chip_ADC_Int_SetChannelCmd, .-Chip_ADC_Int_SetChannelCmd
	.section	.text.Chip_ADC_SetStartMode,"ax",%progbits
	.align	1
	.global	Chip_ADC_SetStartMode
	.syntax unified
	.code	16
	.thumb_func
	.fpu softvfp
	.type	Chip_ADC_SetStartMode, %function
Chip_ADC_SetStartMode:
.LFB207:
	.loc 1 181 0
	.cfi_startproc
	@ args = 0, pretend = 0, frame = 0
	@ frame_needed = 0, uses_anonymous_args = 0
.LVL52:
	push	{r4, lr}
	.cfi_def_cfa_offset 8
	.cfi_offset 4, -8
	.cfi_offset 14, -4
	.loc 1 182 0
	cmp	r1, #1
	bls	.L30
	.loc 1 183 0
	cmp	r2, #0
	bne	.L32
	.loc 1 187 0
	ldr	r3, [r0]
	ldr	r2, .L33
.LVL53:
	ands	r3, r2
	str	r3, [r0]
.L30:
	.loc 1 190 0
	bl	setStartMode
.LVL54:
	.loc 1 191 0
	@ sp needed
	pop	{r4, pc}
.LVL55:
.L32:
	.loc 1 184 0
	ldr	r2, [r0]
.LVL56:
	movs	r3, #128
	lsls	r3, r3, #20
	orrs	r3, r2
	str	r3, [r0]
	b	.L30
.L34:
	.align	2
.L33:
	.word	-134217729
	.cfi_endproc
.LFE207:
	.size	Chip_ADC_SetStartMode, .-Chip_ADC_SetStartMode
	.section	.text.Chip_ADC_SetSampleRate,"ax",%progbits
	.align	1
	.global	Chip_ADC_SetSampleRate
	.syntax unified
	.code	16
	.thumb_func
	.fpu softvfp
	.type	Chip_ADC_SetSampleRate, %function
Chip_ADC_SetSampleRate:
.LFB208:
	.loc 1 195 0
	.cfi_startproc
	@ args = 0, pretend = 0, frame = 0
	@ frame_needed = 0, uses_anonymous_args = 0
.LVL57:
	push	{r3, r4, r5, r6, r7, lr}
	.cfi_def_cfa_offset 24
	.cfi_offset 3, -24
	.cfi_offset 4, -20
	.cfi_offset 5, -16
	.cfi_offset 6, -12
	.cfi_offset 7, -8
	.cfi_offset 14, -4
	mov	lr, r9
	mov	r7, r8
	push	{r7, lr}
	.cfi_def_cfa_offset 32
	.cfi_offset 8, -32
	.cfi_offset 9, -28
	movs	r5, r0
	movs	r6, r1
	movs	r4, r2
	.loc 1 199 0
	ldr	r7, [r0]
	ldr	r3, .L39
	ands	r7, r3
.LVL58:
	.loc 1 200 0
	str	r2, [r6]
	.loc 1 201 0
	ldrb	r3, [r1, #5]
	mov	r8, r3
	ldrb	r3, [r1, #4]
	mov	r9, r3
.LVL59:
.LBB26:
.LBB27:
	.loc 1 67 0
	bl	Chip_Clock_GetSystemClockRate
.LVL60:
	.loc 1 69 0
	mov	r3, r8
	cmp	r3, #0
	bne	.L38
	.loc 1 73 0
	lsls	r1, r4, #2
	adds	r1, r1, r4
	lsls	r1, r1, #1
	adds	r1, r1, r4
.LVL61:
.L37:
.LBE27:
.LBE26:
	.loc 1 203 0
	ldrb	r6, [r6, #4]
.LVL62:
	lsls	r6, r6, #17
	movs	r3, #224
	lsls	r3, r3, #12
	ands	r6, r3
	orrs	r6, r7
.LBB30:
.LBB28:
	.loc 1 77 0
	lsls	r0, r0, #1
.LVL63:
	adds	r0, r0, r1
.LVL64:
	lsls	r1, r1, #1
	bl	__aeabi_uidiv
.LVL65:
	subs	r0, r0, #1
.LBE28:
.LBE30:
	.loc 1 202 0
	uxtb	r0, r0
	lsls	r0, r0, #8
	.loc 1 203 0
	orrs	r0, r6
.LVL66:
	.loc 1 204 0
	str	r0, [r5]
	.loc 1 205 0
	@ sp needed
.LVL67:
.LVL68:
	pop	{r2, r3}
	mov	r8, r2
	mov	r9, r3
	pop	{r3, r4, r5, r6, r7, pc}
.LVL69:
.L38:
	.loc 1 201 0
	movs	r1, #11
	mov	r3, r9
	subs	r1, r1, r3
.LBB31:
.LBB29:
	.loc 1 70 0
	uxtb	r1, r1
	muls	r1, r4
.LVL70:
	b	.L37
.L40:
	.align	2
.L39:
	.word	-982785
.LBE29:
.LBE31:
	.cfi_endproc
.LFE208:
	.size	Chip_ADC_SetSampleRate, .-Chip_ADC_SetSampleRate
	.section	.text.Chip_ADC_SetResolution,"ax",%progbits
	.align	1
	.global	Chip_ADC_SetResolution
	.syntax unified
	.code	16
	.thumb_func
	.fpu softvfp
	.type	Chip_ADC_SetResolution, %function
Chip_ADC_SetResolution:
.LFB209:
	.loc 1 209 0
	.cfi_startproc
	@ args = 0, pretend = 0, frame = 0
	@ frame_needed = 0, uses_anonymous_args = 0
.LVL71:
	push	{r4, lr}
	.cfi_def_cfa_offset 8
	.cfi_offset 4, -8
	.cfi_offset 14, -4
	.loc 1 210 0
	strb	r2, [r1, #4]
	.loc 1 211 0
	ldr	r2, [r1]
.LVL72:
	bl	Chip_ADC_SetSampleRate
.LVL73:
	.loc 1 212 0
	@ sp needed
	pop	{r4, pc}
	.cfi_endproc
.LFE209:
	.size	Chip_ADC_SetResolution, .-Chip_ADC_SetResolution
	.section	.text.Chip_ADC_EnableChannel,"ax",%progbits
	.align	1
	.global	Chip_ADC_EnableChannel
	.syntax unified
	.code	16
	.thumb_func
	.fpu softvfp
	.type	Chip_ADC_EnableChannel, %function
Chip_ADC_EnableChannel:
.LFB210:
	.loc 1 216 0
	.cfi_startproc
	@ args = 0, pretend = 0, frame = 0
	@ frame_needed = 0, uses_anonymous_args = 0
	@ link register save eliminated.
.LVL74:
	.loc 1 217 0
	cmp	r2, #1
	beq	.L45
	.loc 1 221 0
	ldr	r3, [r0]
	ldr	r2, .L46
.LVL75:
	ands	r3, r2
	str	r3, [r0]
	.loc 1 222 0
	ldr	r3, [r0]
	movs	r2, #1
	lsls	r2, r2, r1
	bics	r3, r2
	str	r3, [r0]
.L42:
	.loc 1 224 0
	@ sp needed
	bx	lr
.LVL76:
.L45:
	.loc 1 218 0
	ldr	r2, [r0]
.LVL77:
	movs	r3, #1
	lsls	r3, r3, r1
	orrs	r3, r2
	str	r3, [r0]
	b	.L42
.L47:
	.align	2
.L46:
	.word	-117440513
	.cfi_endproc
.LFE210:
	.size	Chip_ADC_EnableChannel, .-Chip_ADC_EnableChannel
	.section	.text.Chip_ADC_SetBurstCmd,"ax",%progbits
	.align	1
	.global	Chip_ADC_SetBurstCmd
	.syntax unified
	.code	16
	.thumb_func
	.fpu softvfp
	.type	Chip_ADC_SetBurstCmd, %function
Chip_ADC_SetBurstCmd:
.LFB211:
	.loc 1 228 0
	.cfi_startproc
	@ args = 0, pretend = 0, frame = 0
	@ frame_needed = 0, uses_anonymous_args = 0
.LVL78:
	push	{r4, r5, r6, lr}
	.cfi_def_cfa_offset 16
	.cfi_offset 4, -16
	.cfi_offset 5, -12
	.cfi_offset 6, -8
	.cfi_offset 14, -4
	movs	r4, r0
	movs	r5, r1
	.loc 1 229 0
	movs	r1, #0
.LVL79:
	bl	setStartMode
.LVL80:
	.loc 1 231 0
	cmp	r5, #0
	beq	.L51
	.loc 1 235 0
	ldr	r2, [r4]
	movs	r3, #128
	lsls	r3, r3, #9
	orrs	r3, r2
	str	r3, [r4]
.L48:
	.loc 1 237 0
	@ sp needed
.LVL81:
	pop	{r4, r5, r6, pc}
.LVL82:
.L51:
	.loc 1 232 0
	ldr	r3, [r4]
	ldr	r2, .L52
	ands	r3, r2
	str	r3, [r4]
	b	.L48
.L53:
	.align	2
.L52:
	.word	-65537
	.cfi_endproc
.LFE211:
	.size	Chip_ADC_SetBurstCmd, .-Chip_ADC_SetBurstCmd
	.section	.text.Chip_ADC_ReadByte,"ax",%progbits
	.align	1
	.global	Chip_ADC_ReadByte
	.syntax unified
	.code	16
	.thumb_func
	.fpu softvfp
	.type	Chip_ADC_ReadByte, %function
Chip_ADC_ReadByte:
.LFB212:
	.loc 1 241 0
	.cfi_startproc
	@ args = 0, pretend = 0, frame = 0
	@ frame_needed = 0, uses_anonymous_args = 0
	@ link register save eliminated.
.LVL83:
.LBB34:
.LBB35:
	.loc 1 93 0
	adds	r1, r1, #4
.LVL84:
	lsls	r1, r1, #2
	ldr	r3, [r1, r0]
.LVL85:
	.loc 1 94 0
	cmp	r3, #0
	blt	.L57
.LBE35:
.LBE34:
	.loc 1 242 0
	movs	r3, #0
.LVL86:
.LBB38:
.LBB36:
	.loc 1 95 0
	movs	r0, #0
.LVL87:
.L55:
.LBE36:
.LBE38:
	.loc 1 246 0
	strb	r3, [r2]
.LVL88:
	.loc 1 249 0
	@ sp needed
	bx	lr
.LVL89:
.L57:
.LBB39:
.LBB37:
	.loc 1 99 0
	lsls	r3, r3, #16
.LVL90:
	lsrs	r3, r3, #22
.LVL91:
	.loc 1 100 0
	movs	r0, #1
.LVL92:
	b	.L55
.LBE37:
.LBE39:
	.cfi_endproc
.LFE212:
	.size	Chip_ADC_ReadByte, .-Chip_ADC_ReadByte
	.text
.Letext0:
	.file 3 "/Developer/arm/gcc-arm-none-eabi/arm-none-eabi/include/machine/_default_types.h"
	.file 4 "/Developer/arm/gcc-arm-none-eabi/arm-none-eabi/include/sys/_stdint.h"
	.file 5 "./inc/lpc_types.h"
	.file 6 "./inc/chip.h"
	.file 7 "./inc/sysctl_11xx.h"
	.file 8 "./inc/adc_11xx.h"