	.cpu cortex-m0
	.eabi_attribute 20, 1
	.eabi_attribute 21, 1
	.eabi_attribute 23, 3
	.eabi_attribute 24, 1
	.eabi_attribute 25, 1
	.eabi_attribute 26, 1
	.eabi_attribute 30, 1
	.eabi_attribute 34, 0
	.eabi_attribute 18, 4
	.file	"clock_11xx.c"
	.text
.Ltext0:
	.cfi_sections	.debug_frame
	.section	.text.Chip_Clock_SetSystemPLLSource,"ax",%progbits
	.align	1
	.global	Chip_Clock_SetSystemPLLSource
	.syntax unified
	.code	16
	.thumb_func
	.fpu softvfp
	.type	Chip_Clock_SetSystemPLLSource, %function
Chip_Clock_SetSystemPLLSource:
.LFB200:
	.file 1 "src/clock_11xx.c"
	.loc 1 91 0
	.cfi_startproc
	@ args = 0, pretend = 0, frame = 0
	@ frame_needed = 0, uses_anonymous_args = 0
	@ link register save eliminated.
.LVL0:
	.loc 1 92 0
	ldr	r3, .L2
	str	r0, [r3, #64]
	.loc 1 93 0
	movs	r2, #0
	str	r2, [r3, #68]
	.loc 1 94 0
	adds	r2, r2, #1
	str	r2, [r3, #68]
	.loc 1 95 0
	@ sp needed
	bx	lr
.L3:
	.align	2
.L2:
	.word	1074036736
	.cfi_endproc
.LFE200:
	.size	Chip_Clock_SetSystemPLLSource, .-Chip_Clock_SetSystemPLLSource
	.section	.text.Chip_Clock_SetPLLBypass,"ax",%progbits
	.align	1
	.global	Chip_Clock_SetPLLBypass
	.syntax unified
	.code	16
	.thumb_func
	.fpu softvfp
	.type	Chip_Clock_SetPLLBypass, %function
Chip_Clock_SetPLLBypass:
.LFB201:
	.loc 1 99 0
	.cfi_startproc
	@ args = 0, pretend = 0, frame = 0
	@ frame_needed = 0, uses_anonymous_args = 0
	@ link register save eliminated.
.LVL1:
	.loc 1 100 0
	movs	r3, r0
.LVL2:
	.loc 1 105 0
	cmp	r1, #0
	beq	.L5
	.loc 1 106 0
	movs	r3, #2
	orrs	r3, r0
.LVL3:
.L5:
	.loc 1 109 0
	ldr	r2, .L6
	str	r3, [r2, #32]
	.loc 1 110 0
	@ sp needed
	bx	lr
.L7:
	.align	2
.L6:
	.word	1074036736
	.cfi_endproc
.LFE201:
	.size	Chip_Clock_SetPLLBypass, .-Chip_Clock_SetPLLBypass
	.section	.text.Chip_Clock_SetMainClockSource,"ax",%progbits
	.align	1
	.global	Chip_Clock_SetMainClockSource
	.syntax unified
	.code	16
	.thumb_func
	.fpu softvfp
	.type	Chip_Clock_SetMainClockSource, %function
Chip_Clock_SetMainClockSource:
.LFB202:
	.loc 1 125 0
	.cfi_startproc
	@ args = 0, pretend = 0, frame = 0
	@ frame_needed = 0, uses_anonymous_args = 0
	@ link register save eliminated.
.LVL4:
	.loc 1 126 0
	ldr	r3, .L9
	str	r0, [r3, #112]
	.loc 1 127 0
	movs	r2, #0
	str	r2, [r3, #116]
	.loc 1 128 0
	adds	r2, r2, #1
	str	r2, [r3, #116]
	.loc 1 129 0
	@ sp needed
	bx	lr
.L10:
	.align	2
.L9:
	.word	1074036736
	.cfi_endproc
.LFE202:
	.size	Chip_Clock_SetMainClockSource, .-Chip_Clock_SetMainClockSource
	.section	.text.Chip_Clock_SetWDTClockSource,"ax",%progbits
	.align	1
	.global	Chip_Clock_SetWDTClockSource
	.syntax unified
	.code	16
	.thumb_func
	.fpu softvfp
	.type	Chip_Clock_SetWDTClockSource, %function
Chip_Clock_SetWDTClockSource:
.LFB203:
	.loc 1 146 0
	.cfi_startproc
	@ args = 0, pretend = 0, frame = 0
	@ frame_needed = 0, uses_anonymous_args = 0
	@ link register save eliminated.
.LVL5:
	.loc 1 147 0
	ldr	r3, .L12
	movs	r2, #208
	str	r0, [r3, r2]
	.loc 1 148 0
	adds	r2, r2, #4
	movs	r0, #0
.LVL6:
	str	r0, [r3, r2]
	.loc 1 149 0
	adds	r0, r0, #1
	str	r0, [r3, r2]
	.loc 1 150 0
	adds	r2, r2, #4
	str	r1, [r3, r2]
	.loc 1 151 0
	@ sp needed
	bx	lr
.L13:
	.align	2
.L12:
	.word	1074036736
	.cfi_endproc
.LFE203:
	.size	Chip_Clock_SetWDTClockSource, .-Chip_Clock_SetWDTClockSource
	.section	.text.Chip_Clock_SetCLKOUTSource,"ax",%progbits
	.align	1
	.global	Chip_Clock_SetCLKOUTSource
	.syntax unified
	.code	16
	.thumb_func
	.fpu softvfp
	.type	Chip_Clock_SetCLKOUTSource, %function
Chip_Clock_SetCLKOUTSource:
.LFB204:
	.loc 1 158 0
	.cfi_startproc
	@ args = 0, pretend = 0, frame = 0
	@ frame_needed = 0, uses_anonymous_args = 0
	@ link register save eliminated.
.LVL7:
	.loc 1 159 0
	ldr	r3, .L15
	movs	r2, #224
	str	r0, [r3, r2]
	.loc 1 160 0
	adds	r2, r2, #4
	movs	r0, #0
.LVL8:
	str	r0, [r3, r2]
	.loc 1 161 0
	adds	r0, r0, #1
	str	r0, [r3, r2]
	.loc 1 162 0
	adds	r2, r2, #4
	str	r1, [r3, r2]
	.loc 1 163 0
	@ sp needed
	bx	lr
.L16:
	.align	2
.L15:
	.word	1074036736
	.cfi_endproc
.LFE204:
	.size	Chip_Clock_SetCLKOUTSource, .-Chip_Clock_SetCLKOUTSource
	.global	__aeabi_uidiv
	.section	.text.Chip_Clock_GetWDTOSCRate,"ax",%progbits
	.align	1
	.global	Chip_Clock_GetWDTOSCRate
	.syntax unified
	.code	16
	.thumb_func
	.fpu softvfp
	.type	Chip_Clock_GetWDTOSCRate, %function
Chip_Clock_GetWDTOSCRate:
.LFB205:
	.loc 1 169 0
	.cfi_startproc
	@ args = 0, pretend = 0, frame = 0
	@ frame_needed = 0, uses_anonymous_args = 0
	push	{r4, lr}
	.cfi_def_cfa_offset 8
	.cfi_offset 4, -8
	.cfi_offset 14, -4
	.loc 1 170 0
	ldr	r3, .L18
	ldr	r2, [r3, #36]
.LBB10:
.LBB11:
	.loc 1 70 0
	lsls	r3, r2, #23
	.loc 1 74 0
	lsrs	r3, r3, #28
	lsls	r3, r3, #2
	.loc 1 71 0
	movs	r1, #31
	ands	r1, r2
	.loc 1 74 0
	adds	r1, r1, #1
	lsls	r1, r1, #1
	ldr	r2, .L18+4
	ldr	r0, [r3, r2]
	bl	__aeabi_uidiv
.LVL9:
.LBE11:
.LBE10:
	.loc 1 171 0
	@ sp needed
	pop	{r4, pc}
.L19:
	.align	2
.L18:
	.word	1074036736
	.word	.LANCHOR0
	.cfi_endproc
.LFE205:
	.size	Chip_Clock_GetWDTOSCRate, .-Chip_Clock_GetWDTOSCRate
	.section	.text.Chip_Clock_GetSystemPLLInClockRate,"ax",%progbits
	.align	1
	.global	Chip_Clock_GetSystemPLLInClockRate
	.syntax unified
	.code	16
	.thumb_func
	.fpu softvfp
	.type	Chip_Clock_GetSystemPLLInClockRate, %function
Chip_Clock_GetSystemPLLInClockRate:
.LFB206:
	.loc 1 184 0
	.cfi_startproc
	@ args = 0, pretend = 0, frame = 0
	@ frame_needed = 0, uses_anonymous_args = 0
	@ link register save eliminated.
	.loc 1 187 0
	ldr	r3, .L25
	ldr	r3, [r3, #64]
	movs	r2, #3
	ands	r3, r2
	beq	.L24
	.loc 1 203 0
	movs	r0, #0
	.loc 1 187 0
	cmp	r3, #1
	bne	.L20
.LBB12:
.LBB13:
	.file 2 "./inc/clock_11xx.h"
	.loc 2 458 0
	ldr	r3, .L25+4
	ldr	r0, [r3]
.L20:
.LBE13:
.LBE12:
	.loc 1 207 0
	@ sp needed
	bx	lr
.L24:
	.loc 1 189 0
	ldr	r0, .L25+8
.LVL10:
	.loc 1 206 0
	b	.L20
.L26:
	.align	2
.L25:
	.word	1074036736
	.word	OscRateIn
	.word	12000000
	.cfi_endproc
.LFE206:
	.size	Chip_Clock_GetSystemPLLInClockRate, .-Chip_Clock_GetSystemPLLInClockRate
	.section	.text.Chip_Clock_GetSystemPLLOutClockRate,"ax",%progbits
	.align	1
	.global	Chip_Clock_GetSystemPLLOutClockRate
	.syntax unified
	.code	16
	.thumb_func
	.fpu softvfp
	.type	Chip_Clock_GetSystemPLLOutClockRate, %function
Chip_Clock_GetSystemPLLOutClockRate:
.LFB207:
	.loc 1 211 0
	.cfi_startproc
	@ args = 0, pretend = 0, frame = 0
	@ frame_needed = 0, uses_anonymous_args = 0
	push	{r4, lr}
	.cfi_def_cfa_offset 8
	.cfi_offset 4, -8
	.cfi_offset 14, -4
	.loc 1 212 0
	ldr	r3, .L28
	ldr	r4, [r3, #8]
	bl	Chip_Clock_GetSystemPLLInClockRate
.LVL11:
.LBB16:
.LBB17:
	.loc 1 80 0
	movs	r3, #31
	ands	r3, r4
	adds	r3, r3, #1
	.loc 1 82 0
	muls	r0, r3
.LBE17:
.LBE16:
	.loc 1 214 0
	@ sp needed
	pop	{r4, pc}
.L29:
	.align	2
.L28:
	.word	1074036736
	.cfi_endproc
.LFE207:
	.size	Chip_Clock_GetSystemPLLOutClockRate, .-Chip_Clock_GetSystemPLLOutClockRate
	.section	.text.Chip_Clock_GetMainClockRate,"ax",%progbits
	.align	1
	.global	Chip_Clock_GetMainClockRate
	.syntax unified
	.code	16
	.thumb_func
	.fpu softvfp
	.type	Chip_Clock_GetMainClockRate, %function
Chip_Clock_GetMainClockRate:
.LFB208:
	.loc 1 249 0
	.cfi_startproc
	@ args = 0, pretend = 0, frame = 0
	@ frame_needed = 0, uses_anonymous_args = 0
	push	{r4, lr}
	.cfi_def_cfa_offset 8
	.cfi_offset 4, -8
	.cfi_offset 14, -4
.LVL12:
	.loc 1 252 0
	ldr	r3, .L39
	ldr	r3, [r3, #112]
	movs	r2, #3
	ands	r3, r2
	cmp	r3, #1
	beq	.L32
	ble	.L38
	cmp	r3, #2
	beq	.L35
	cmp	r3, #3
	bne	.L37
	.loc 1 273 0
	bl	Chip_Clock_GetSystemPLLOutClockRate
.LVL13:
	.loc 1 274 0
	b	.L30
.LVL14:
.L38:
	.loc 1 252 0
	cmp	r3, #0
	bne	.L37
	.loc 1 254 0
	ldr	r0, .L39+4
.LVL15:
.L30:
	.loc 1 278 0
	@ sp needed
	pop	{r4, pc}
.LVL16:
.L32:
	.loc 1 258 0
	bl	Chip_Clock_GetSystemPLLInClockRate
.LVL17:
	.loc 1 259 0
	b	.L30
.LVL18:
.L35:
	.loc 1 268 0
	bl	Chip_Clock_GetWDTOSCRate
.LVL19:
	.loc 1 269 0
	b	.L30
.LVL20:
.L37:
	.loc 1 250 0
	movs	r0, #0
	.loc 1 277 0
	b	.L30
.L40:
	.align	2
.L39:
	.word	1074036736
	.word	12000000
	.cfi_endproc
.LFE208:
	.size	Chip_Clock_GetMainClockRate, .-Chip_Clock_GetMainClockRate
	.section	.text.Chip_Clock_GetSystemClockRate,"ax",%progbits
	.align	1
	.global	Chip_Clock_GetSystemClockRate
	.syntax unified
	.code	16
	.thumb_func
	.fpu softvfp
	.type	Chip_Clock_GetSystemClockRate, %function
Chip_Clock_GetSystemClockRate:
.LFB209:
	.loc 1 282 0
	.cfi_startproc
	@ args = 0, pretend = 0, frame = 0
	@ frame_needed = 0, uses_anonymous_args = 0
	push	{r4, lr}
	.cfi_def_cfa_offset 8
	.cfi_offset 4, -8
	.cfi_offset 14, -4
	.loc 1 284 0
	bl	Chip_Clock_GetMainClockRate
.LVL21:
	ldr	r3, .L42
	ldr	r1, [r3, #120]
	bl	__aeabi_uidiv
.LVL22:
	.loc 1 285 0
	@ sp needed
	pop	{r4, pc}
.L43:
	.align	2
.L42:
	.word	1074036736
	.cfi_endproc
.LFE209:
	.size	Chip_Clock_GetSystemClockRate, .-Chip_Clock_GetSystemClockRate
	.section	.rodata.wdtOSCRate,"a",%progbits
	.align	2
	.set	.LANCHOR0,. + 0
	.type	wdtOSCRate, %object
	.size	wdtOSCRate, 64
wdtOSCRate:
	.word	0
	.word	600000
	.word	1050000
	.word	1400000
	.word	1750000
	.word	2100000
	.word	2400000
	.word	2700000
	.word	3000000
	.word	3250000
	.word	3500000
	.word	3750000
	.word	4000000
	.word	4200000
	.word	4400000
	.word	4600000
	.text
.Letext0:
	.file 3 "/Developer/arm/gcc-arm-none-eabi/arm-none-eabi/include/machine/_default_types.h"
	.file 4 "/Developer/arm/gcc-arm-none-eabi/arm-none-eabi/include/sys/_stdint.h"
	.file 5 "./inc/chip.h"
	.file 6 "./inc/sysctl_11xx.h"