	.cpu cortex-m0
	.eabi_attribute 20, 1
	.eabi_attribute 21, 1
	.eabi_attribute 23, 3
	.eabi_attribute 24, 1
	.eabi_attribute 25, 1
	.eabi_attribute 26, 1
	.eabi_attribute 30, 1
	.eabi_attribute 34, 0
	.eabi_attribute 18, 4
	.file	"gpio_11xx_2.c"
	.text
.Ltext0:
	.cfi_sections	.debug_frame
	.section	.text.Chip_GPIO_Init,"ax",%progbits
	.align	1
	.global	Chip_GPIO_Init
	.syntax unified
	.code	16
	.thumb_func
	.fpu softvfp
	.type	Chip_GPIO_Init, %function
Chip_GPIO_Init:
.LFB198:
	.file 1 "src/gpio_11xx_2.c"
	.loc 1 55 0
	.cfi_startproc
	@ args = 0, pretend = 0, frame = 0
	@ frame_needed = 0, uses_anonymous_args = 0
	@ link register save eliminated.
.LVL0:
.LBB26:
.LBB27:
	.file 2 "./inc/clock_11xx.h"
	.loc 2 297 0
	ldr	r1, .L2
	movs	r2, #128
	ldr	r3, [r1, r2]
	movs	r0, #64
.LVL1:
	orrs	r3, r0
	str	r3, [r1, r2]
.LVL2:
.LBE27:
.LBE26:
	.loc 1 57 0
	@ sp needed
	bx	lr
.L3:
	.align	2
.L2:
	.word	1074036736
	.cfi_endproc
.LFE198:
	.size	Chip_GPIO_Init, .-Chip_GPIO_Init
	.section	.text.Chip_GPIO_DeInit,"ax",%progbits
	.align	1
	.global	Chip_GPIO_DeInit
	.syntax unified
	.code	16
	.thumb_func
	.fpu softvfp
	.type	Chip_GPIO_DeInit, %function
Chip_GPIO_DeInit:
.LFB199:
	.loc 1 61 0
	.cfi_startproc
	@ args = 0, pretend = 0, frame = 0
	@ frame_needed = 0, uses_anonymous_args = 0
	@ link register save eliminated.
.LVL3:
.LBB28:
.LBB29:
	.loc 2 307 0
	ldr	r1, .L5
	movs	r2, #128
	ldr	r3, [r1, r2]
	movs	r0, #64
.LVL4:
	bics	r3, r0
	str	r3, [r1, r2]
.LVL5:
.LBE29:
.LBE28:
	.loc 1 63 0
	@ sp needed
	bx	lr
.L6:
	.align	2
.L5:
	.word	1074036736
	.cfi_endproc
.LFE199:
	.size	Chip_GPIO_DeInit, .-Chip_GPIO_DeInit
	.section	.text.Chip_GPIO_WriteDirBit,"ax",%progbits
	.align	1
	.global	Chip_GPIO_WriteDirBit
	.syntax unified
	.code	16
	.thumb_func
	.fpu softvfp
	.type	Chip_GPIO_WriteDirBit, %function
Chip_GPIO_WriteDirBit:
.LFB200:
	.loc 1 67 0
	.cfi_startproc
	@ args = 0, pretend = 0, frame = 0
	@ frame_needed = 0, uses_anonymous_args = 0
.LVL6:
	push	{r4, lr}
	.cfi_def_cfa_offset 8
	.cfi_offset 4, -8
	.cfi_offset 14, -4
	.loc 1 68 0
	cmp	r3, #0
	bne	.L10
	.loc 1 72 0
	lsls	r1, r1, #16
.LVL7:
	adds	r0, r0, r1
.LVL8:
	movs	r4, #128
	lsls	r4, r4, #8
	ldr	r3, [r0, r4]
.LVL9:
	movs	r1, #1
	lsls	r1, r1, r2
	bics	r3, r1
	str	r3, [r0, r4]
.L7:
	.loc 1 74 0
	@ sp needed
	pop	{r4, pc}
.LVL10:
.L10:
	.loc 1 69 0
	lsls	r1, r1, #16
.LVL11:
	adds	r0, r0, r1
.LVL12:
	movs	r1, #128
	lsls	r1, r1, #8
	ldr	r4, [r0, r1]
	movs	r3, #1
.LVL13:
	lsls	r3, r3, r2
	orrs	r3, r4
	str	r3, [r0, r1]
	b	.L7
	.cfi_endproc
.LFE200:
	.size	Chip_GPIO_WriteDirBit, .-Chip_GPIO_WriteDirBit
	.section	.text.Chip_GPIO_SetDir,"ax",%progbits
	.align	1
	.global	Chip_GPIO_SetDir
	.syntax unified
	.code	16
	.thumb_func
	.fpu softvfp
	.type	Chip_GPIO_SetDir, %function
Chip_GPIO_SetDir:
.LFB201:
	.loc 1 78 0
	.cfi_startproc
	@ args = 0, pretend = 0, frame = 0
	@ frame_needed = 0, uses_anonymous_args = 0
	@ link register save eliminated.
.LVL14:
	.loc 1 79 0
	cmp	r3, #0
	bne	.L14
	.loc 1 83 0
	lsls	r1, r1, #16
.LVL15:
	adds	r0, r0, r1
.LVL16:
	movs	r1, #128
	lsls	r1, r1, #8
	ldr	r3, [r0, r1]
.LVL17:
	bics	r3, r2
	str	r3, [r0, r1]
.LVL18:
.L11:
	.loc 1 85 0
	@ sp needed
	bx	lr
.LVL19:
.L14:
	.loc 1 80 0
	lsls	r1, r1, #16
.LVL20:
	adds	r0, r0, r1
.LVL21:
	movs	r1, #128
	lsls	r1, r1, #8
	ldr	r3, [r0, r1]
.LVL22:
	orrs	r2, r3
.LVL23:
	str	r2, [r0, r1]
	b	.L11
	.cfi_endproc
.LFE201:
	.size	Chip_GPIO_SetDir, .-Chip_GPIO_SetDir
	.section	.text.Chip_GPIO_SetPinDIR,"ax",%progbits
	.align	1
	.global	Chip_GPIO_SetPinDIR
	.syntax unified
	.code	16
	.thumb_func
	.fpu softvfp
	.type	Chip_GPIO_SetPinDIR, %function
Chip_GPIO_SetPinDIR:
.LFB202:
	.loc 1 89 0
	.cfi_startproc
	@ args = 0, pretend = 0, frame = 0
	@ frame_needed = 0, uses_anonymous_args = 0
.LVL24:
	push	{r4, lr}
	.cfi_def_cfa_offset 8
	.cfi_offset 4, -8
	.cfi_offset 14, -4
	.loc 1 90 0
	cmp	r3, #0
	bne	.L18
.LVL25:
.LBB30:
.LBB31:
	.file 3 "./inc/gpio_11xx_2.h"
	.loc 3 167 0
	lsls	r1, r1, #16
.LVL26:
	adds	r0, r0, r1
.LVL27:
	movs	r4, #128
	lsls	r4, r4, #8
	ldr	r3, [r0, r4]
.LVL28:
	movs	r1, #1
	lsls	r1, r1, r2
	bics	r3, r1
	str	r3, [r0, r4]
.LVL29:
.L15:
.LBE31:
.LBE30:
	.loc 1 96 0
	@ sp needed
	pop	{r4, pc}
.LVL30:
.L18:
.LBB32:
.LBB33:
	.loc 3 155 0
	lsls	r1, r1, #16
.LVL31:
	adds	r0, r0, r1
.LVL32:
	movs	r1, #128
	lsls	r1, r1, #8
	ldr	r4, [r0, r1]
	movs	r3, #1
.LVL33:
	lsls	r3, r3, r2
	orrs	r3, r4
	str	r3, [r0, r1]
	b	.L15
.LBE33:
.LBE32:
	.cfi_endproc
.LFE202:
	.size	Chip_GPIO_SetPinDIR, .-Chip_GPIO_SetPinDIR
	.section	.text.Chip_GPIO_SetPortDIR,"ax",%progbits
	.align	1
	.global	Chip_GPIO_SetPortDIR
	.syntax unified
	.code	16
	.thumb_func
	.fpu softvfp
	.type	Chip_GPIO_SetPortDIR, %function
Chip_GPIO_SetPortDIR:
.LFB203:
	.loc 1 101 0
	.cfi_startproc
	@ args = 0, pretend = 0, frame = 0
	@ frame_needed = 0, uses_anonymous_args = 0
	@ link register save eliminated.
.LVL34:
	.loc 1 102 0
	cmp	r3, #0
	bne	.L22
.LVL35:
.LBB34:
.LBB35:
	.loc 3 242 0
	lsls	r1, r1, #16
.LVL36:
	adds	r0, r0, r1
.LVL37:
	movs	r1, #128
	lsls	r1, r1, #8
	ldr	r3, [r0, r1]
.LVL38:
	bics	r3, r2
	str	r3, [r0, r1]
.LVL39:
.L19:
.LBE35:
.LBE34:
	.loc 1 108 0
	@ sp needed
	bx	lr
.LVL40:
.L22:
.LBB36:
.LBB37:
	.loc 3 228 0
	lsls	r1, r1, #16
.LVL41:
	adds	r0, r0, r1
.LVL42:
	movs	r3, #128
.LVL43:
	lsls	r3, r3, #8
	ldr	r1, [r0, r3]
	orrs	r2, r1
.LVL44:
	str	r2, [r0, r3]
	b	.L19
.LBE37:
.LBE36:
	.cfi_endproc
.LFE203:
	.size	Chip_GPIO_SetPortDIR, .-Chip_GPIO_SetPortDIR
	.section	.text.Chip_GPIO_SetupPinInt,"ax",%progbits
	.align	1
	.global	Chip_GPIO_SetupPinInt
	.syntax unified
	.code	16
	.thumb_func
	.fpu softvfp
	.type	Chip_GPIO_SetupPinInt, %function
Chip_GPIO_SetupPinInt:
.LFB204:
	.loc 1 112 0
	.cfi_startproc
	@ args = 0, pretend = 0, frame = 0
	@ frame_needed = 0, uses_anonymous_args = 0
.LVL45:
	push	{r4, r5, r6, r7, lr}
	.cfi_def_cfa_offset 20
	.cfi_offset 4, -20
	.cfi_offset 5, -16
	.cfi_offset 6, -12
	.cfi_offset 7, -8
	.cfi_offset 14, -4
	.loc 1 113 0
	movs	r4, #1
	lsls	r4, r4, r2
.LVL46:
	.loc 1 116 0
	lsls	r2, r3, #30
	bpl	.L24
.LVL47:
.LBB38:
.LBB39:
	.loc 3 428 0
	lsls	r2, r1, #16
	adds	r2, r0, r2
	ldr	r6, .L30
	ldr	r5, [r2, r6]
	mvns	r7, r4
	ands	r5, r7
	str	r5, [r2, r6]
.LVL48:
.LBE39:
.LBE38:
	.loc 1 120 0
	lsls	r5, r3, #29
	bpl	.L25
.LVL49:
.LBB40:
.LBB41:
	.loc 3 467 0
	ldr	r6, .L30+4
	ldr	r5, [r2, r6]
	orrs	r5, r4
	str	r5, [r2, r6]
	b	.L26
.LVL50:
.L25:
.LBE41:
.LBE40:
.LBB42:
.LBB43:
	.loc 3 479 0
	ldr	r6, .L30+4
	ldr	r5, [r2, r6]
	ands	r7, r5
	str	r7, [r2, r6]
	b	.L26
.LVL51:
.L24:
.LBE43:
.LBE42:
.LBB44:
.LBB45:
	.loc 3 440 0
	lsls	r2, r1, #16
	adds	r2, r0, r2
	ldr	r6, .L30
	ldr	r5, [r2, r6]
	orrs	r5, r4
	str	r5, [r2, r6]
.LVL52:
.L26:
.LBE45:
.LBE44:
	.loc 1 133 0
	lsls	r3, r3, #31
	bmi	.L29
.LVL53:
.LBB46:
.LBB47:
	.loc 3 524 0
	lsls	r1, r1, #16
.LVL54:
	adds	r1, r0, r1
	ldr	r2, .L30+8
	ldr	r3, [r1, r2]
	bics	r3, r4
	str	r3, [r1, r2]
.LVL55:
.L23:
.LBE47:
.LBE46:
	.loc 1 140 0
	@ sp needed
	pop	{r4, r5, r6, r7, pc}
.LVL56:
.L29:
.LBB48:
.LBB49:
	.loc 3 510 0
	lsls	r1, r1, #16
.LVL57:
	adds	r1, r0, r1
	ldr	r2, .L30+8
	ldr	r3, [r1, r2]
	orrs	r4, r3
.LVL58:
	str	r4, [r1, r2]
	b	.L23
.L31:
	.align	2
.L30:
	.word	32772
	.word	32776
	.word	32780
.LBE49:
.LBE48:
	.cfi_endproc
.LFE204:
	.size	Chip_GPIO_SetupPinInt, .-Chip_GPIO_SetupPinInt
	.text
.Letext0:
	.file 4 "/Developer/arm/gcc-arm-none-eabi/arm-none-eabi/include/machine/_default_types.h"
	.file 5 "/Developer/arm/gcc-arm-none-eabi/arm-none-eabi/include/sys/_stdint.h"
	.file 6 "./inc/chip.h"
	.file 7 "./inc/sysctl_11xx.h"