	.cpu cortex-m0
	.eabi_attribute 20, 1
	.eabi_attribute 21, 1
	.eabi_attribute 23, 3
	.eabi_attribute 24, 1
	.eabi_attribute 25, 1
	.eabi_attribute 26, 1
	.eabi_attribute 30, 1
	.eabi_attribute 34, 0
	.eabi_attribute 18, 4
	.file	"i2c_11xx.c"
	.text
.Ltext0:
	.cfi_sections	.debug_frame
	.section	.text.Chip_I2C_EventHandler,"ax",%progbits
	.align	1
	.global	Chip_I2C_EventHandler
	.syntax unified
	.code	16
	.thumb_func
	.fpu softvfp
	.type	Chip_I2C_EventHandler, %function
Chip_I2C_EventHandler:
.LFB212:
	.file 1 "src/i2c_11xx.c"
	.loc 1 329 0
	.cfi_startproc
	@ args = 0, pretend = 0, frame = 0
	@ frame_needed = 0, uses_anonymous_args = 0
	@ link register save eliminated.
.LVL0:
	.loc 1 334 0
	cmp	r1, #1
	beq	.L5
.LVL1:
.L1:
	.loc 1 341 0
	@ sp needed
	bx	lr
.LVL2:
.L5:
	.loc 1 338 0
	lsls	r3, r0, #3
	subs	r0, r3, r0
.LVL3:
	lsls	r0, r0, #2
	ldr	r3, .L6
	adds	r0, r3, r0
	ldr	r2, [r0, #16]
.LVL4:
.L3:
	.loc 1 340 0 discriminator 1
	ldrb	r3, [r2, #20]
	cmp	r3, #4
	beq	.L3
	b	.L1
.L7:
	.align	2
.L6:
	.word	.LANCHOR0
	.cfi_endproc
.LFE212:
	.size	Chip_I2C_EventHandler, .-Chip_I2C_EventHandler
	.section	.text.handleMasterXferState,"ax",%progbits
	.align	1
	.global	handleMasterXferState
	.syntax unified
	.code	16
	.thumb_func
	.fpu softvfp
	.type	handleMasterXferState, %function
handleMasterXferState:
.LFB209:
	.loc 1 177 0
	.cfi_startproc
	@ args = 0, pretend = 0, frame = 0
	@ frame_needed = 0, uses_anonymous_args = 0
.LVL5:
	push	{r4, r5, lr}
	.cfi_def_cfa_offset 12
	.cfi_offset 4, -12
	.cfi_offset 5, -8
	.cfi_offset 14, -4
.LVL6:
.LBB38:
.LBB39:
	.loc 1 122 0
	ldr	r2, [r0, #4]
.LVL7:
	movs	r3, #248
	ands	r3, r2
.LBE39:
.LBE38:
	.loc 1 180 0
	cmp	r3, #88
	bhi	.L26
	lsls	r3, r3, #2
	ldr	r2, .L31
	ldr	r3, [r2, r3]
	mov	pc, r3
	.section	.rodata.handleMasterXferState,"a",%progbits
	.align	2
.L11:
	.word	.L10
	.word	.L26
	.word	.L26
	.word	.L26
	.word	.L26
	.word	.L26
	.word	.L26
	.word	.L26
	.word	.L12
	.word	.L26
	.word	.L26
	.word	.L26
	.word	.L26
	.word	.L26
	.word	.L26
	.word	.L26
	.word	.L12
	.word	.L26
	.word	.L26
	.word	.L26
	.word	.L26
	.word	.L26
	.word	.L26
	.word	.L26
	.word	.L13
	.word	.L26
	.word	.L26
	.word	.L26
	.word	.L26
	.word	.L26
	.word	.L26
	.word	.L26
	.word	.L14
	.word	.L26
	.word	.L26
	.word	.L26
	.word	.L26
	.word	.L26
	.word	.L26
	.word	.L26
	.word	.L13
	.word	.L26
	.word	.L26
	.word	.L26
	.word	.L26
	.word	.L26
	.word	.L26
	.word	.L26
	.word	.L14
	.word	.L26
	.word	.L26
	.word	.L26
	.word	.L26
	.word	.L26
	.word	.L26
	.word	.L26
	.word	.L15
	.word	.L26
	.word	.L26
	.word	.L26
	.word	.L26
	.word	.L26
	.word	.L26
	.word	.L26
	.word	.L27
	.word	.L26
	.word	.L26
	.word	.L26
	.word	.L26
	.word	.L26
	.word	.L26
	.word	.L26
	.word	.L14
	.word	.L26
	.word	.L26
	.word	.L26
	.word	.L26
	.word	.L26
	.word	.L26
	.word	.L26
	.word	.L28
	.word	.L26
	.word	.L26
	.word	.L26
	.word	.L26
	.word	.L26
	.word	.L26
	.word	.L26
	.word	.L18
	.section	.text.handleMasterXferState
.L12:
	.loc 1 183 0
	ldrb	r3, [r1]
	lsls	r3, r3, #1
	ldr	r2, [r1, #8]
	rsbs	r4, r2, #0
	adcs	r2, r2, r4
	orrs	r3, r2
	str	r3, [r0, #8]
.L19:
	.loc 1 231 0
	movs	r3, #0
	str	r3, [r0]
	.loc 1 232 0
	adds	r3, r3, #60
	str	r3, [r0, #24]
.LVL8:
.L25:
	.loc 1 235 0 discriminator 1
	ldrb	r0, [r1, #20]
.LVL9:
	subs	r0, r0, #2
	.loc 1 239 0 discriminator 1
	subs	r3, r0, #1
	sbcs	r0, r0, r3
.L8:
	.loc 1 242 0
	@ sp needed
	pop	{r4, r5, pc}
.LVL10:
.L13:
	.loc 1 189 0
	ldr	r3, [r1, #8]
	cmp	r3, #0
	bne	.L20
	.loc 1 190 0
	ldr	r3, [r1, #16]
	subs	r2, r3, #1
	sbcs	r3, r3, r2
	rsbs	r3, r3, #0
	movs	r2, #15
	bics	r3, r2
	movs	r2, r3
	subs	r2, r2, #17
	movs	r3, #60
	ands	r3, r2
.LVL11:
	b	.L9
.LVL12:
.L20:
	.loc 1 193 0
	ldr	r3, [r1, #4]
	adds	r2, r3, #1
	str	r2, [r1, #4]
	ldrb	r3, [r3]
	str	r3, [r0, #8]
	.loc 1 194 0
	ldr	r3, [r1, #8]
	subs	r3, r3, #1
	str	r3, [r1, #8]
	b	.L19
.L18:
	.loc 1 200 0
	movs	r3, #44
	b	.L17
.L28:
	.loc 1 178 0
	movs	r3, #60
.L17:
.LVL13:
	.loc 1 203 0
	ldr	r4, [r0, #8]
	ldr	r2, [r1, #12]
	adds	r5, r2, #1
	str	r5, [r1, #12]
	strb	r4, [r2]
	.loc 1 204 0
	ldr	r2, [r1, #16]
	subs	r2, r2, #1
	str	r2, [r1, #16]
.LVL14:
.L16:
	.loc 1 207 0
	ldr	r2, [r1, #16]
	cmp	r2, #1
	ble	.L9
	.loc 1 208 0
	movs	r2, #4
	bics	r3, r2
.LVL15:
.L9:
	.loc 1 231 0
	movs	r2, #60
	eors	r2, r3
	str	r2, [r0]
	.loc 1 232 0
	str	r3, [r0, #24]
	.loc 1 235 0
	lsls	r3, r3, #27
	bmi	.L25
.LVL16:
.L23:
	.loc 1 236 0
	ldrb	r3, [r1, #20]
	.loc 1 239 0
	movs	r0, #0
.LVL17:
	.loc 1 236 0
	cmp	r3, #4
	bne	.L8
	.loc 1 237 0
	movs	r3, #0
	strb	r3, [r1, #20]
	b	.L8
.LVL18:
.L27:
	.loc 1 178 0
	movs	r3, #60
	b	.L16
.L14:
	.loc 1 216 0
	movs	r3, #1
	strb	r3, [r1, #20]
.LVL19:
.L22:
	.loc 1 231 0
	movs	r3, #16
	str	r3, [r0]
	.loc 1 232 0
	adds	r3, r3, #28
	str	r3, [r0, #24]
	b	.L23
.LVL20:
.L15:
	.loc 1 221 0
	movs	r3, #2
	strb	r3, [r1, #20]
	.loc 1 222 0
	b	.L19
.L10:
	.loc 1 226 0
	movs	r3, #3
	strb	r3, [r1, #20]
.LVL21:
	b	.L22
.LVL22:
.L26:
	.loc 1 178 0
	movs	r3, #60
	b	.L9
.L32:
	.align	2
.L31:
	.word	.L11
	.cfi_endproc
.LFE209:
	.size	handleMasterXferState, .-handleMasterXferState
	.section	.text.getSlaveIndex,"ax",%progbits
	.align	1
	.global	getSlaveIndex
	.syntax unified
	.code	16
	.thumb_func
	.fpu softvfp
	.type	getSlaveIndex, %function
getSlaveIndex:
.LFB210:
	.loc 1 246 0
	.cfi_startproc
	@ args = 0, pretend = 0, frame = 0
	@ frame_needed = 0, uses_anonymous_args = 0
.LVL23:
	push	{r4, lr}
	.cfi_def_cfa_offset 8
	.cfi_offset 4, -8
	.cfi_offset 14, -4
.LVL24:
.LBB52:
.LBB53:
	.loc 1 122 0
	ldr	r2, [r0, #4]
.LVL25:
	movs	r3, #248
	ands	r3, r2
.LBE53:
.LBE52:
	.loc 1 247 0
	cmp	r3, #112
	beq	.L35
	ble	.L43
	cmp	r3, #168
	beq	.L35
	cmp	r3, #176
	beq	.L35
	cmp	r3, #120
	beq	.L35
.L37:
	.loc 1 258 0
	movs	r3, #0
.LVL26:
.L34:
	.loc 1 259 0
	movs	r0, r3
	@ sp needed
	pop	{r4, pc}
.LVL27:
.L43:
	.loc 1 247 0
	cmp	r3, #96
	beq	.L35
	cmp	r3, #104
	bne	.L37
.L35:
	.loc 1 254 0
	ldr	r2, [r0, #8]
	uxtb	r2, r2
.LVL28:
.LBB54:
.LBB55:
	.loc 1 155 0
	lsrs	r1, r2, #1
	.loc 1 156 0
	movs	r3, #0
	.loc 1 155 0
	cmp	r1, #0
	beq	.L34
	.loc 1 158 0
	ldr	r1, [r0, #12]
	ldr	r3, [r0, #48]
.LBB56:
.LBB57:
	.loc 1 148 0
	movs	r4, #1
	orrs	r3, r4
	.loc 1 149 0
	uxtb	r3, r3
	eors	r1, r2
	uxtb	r1, r1
	bics	r1, r3
.LBE57:
.LBE56:
	.loc 1 159 0
	movs	r3, #1
	.loc 1 158 0
	cmp	r1, #0
	beq	.L34
	.loc 1 161 0
	ldr	r3, [r0, #32]
	ldr	r1, [r0, #52]
.LBB58:
.LBB59:
	.loc 1 148 0
	orrs	r1, r4
	.loc 1 149 0
	uxtb	r1, r1
	eors	r3, r2
	uxtb	r3, r3
	bics	r3, r1
.LBE59:
.LBE58:
	.loc 1 161 0
	beq	.L40
	.loc 1 164 0
	ldr	r3, [r0, #36]
	ldr	r1, [r0, #56]
.LBB60:
.LBB61:
	.loc 1 148 0
	orrs	r1, r4
	.loc 1 149 0
	uxtb	r1, r1
	eors	r3, r2
	uxtb	r3, r3
	bics	r3, r1
.LBE61:
.LBE60:
	.loc 1 164 0
	beq	.L41
	.loc 1 167 0
	ldr	r3, [r0, #40]
	ldr	r1, [r0, #60]
.LBB62:
.LBB63:
	.loc 1 148 0
	movs	r0, #1
.LVL29:
	orrs	r1, r0
	.loc 1 149 0
	uxtb	r1, r1
	eors	r3, r2
	uxtb	r3, r3
	bics	r3, r1
.LBE63:
.LBE62:
	.loc 1 172 0
	rsbs	r2, r3, #0
	adcs	r3, r3, r2
.LVL30:
	lsls	r3, r3, #2
	b	.L34
.LVL31:
.L40:
	.loc 1 162 0
	movs	r3, #2
	b	.L34
.L41:
	.loc 1 165 0
	movs	r3, #3
	b	.L34
.LBE55:
.LBE54:
	.cfi_endproc
.LFE210:
	.size	getSlaveIndex, .-getSlaveIndex
	.section	.text.handleSlaveXferState,"ax",%progbits
	.align	1
	.global	handleSlaveXferState
	.syntax unified
	.code	16
	.thumb_func
	.fpu softvfp
	.type	handleSlaveXferState, %function
handleSlaveXferState:
.LFB211:
	.loc 1 263 0
	.cfi_startproc
	@ args = 0, pretend = 0, frame = 0
	@ frame_needed = 0, uses_anonymous_args = 0
.LVL32:
	push	{r4, lr}
	.cfi_def_cfa_offset 8
	.cfi_offset 4, -8
	.cfi_offset 14, -4
.LVL33:
	.loc 1 267 0
	movs	r3, #4
	strb	r3, [r1, #20]
.LVL34:
.LBB64:
.LBB65:
	.loc 1 122 0
	ldr	r2, [r0, #4]
.LVL35:
	adds	r3, r3, #244
	ands	r3, r2
.LBE65:
.LBE64:
	.loc 1 268 0
	subs	r3, r3, #96
	cmp	r3, #104
	bhi	.L52
	lsls	r3, r3, #2
	ldr	r2, .L57
	ldr	r3, [r2, r3]
	mov	pc, r3
	.section	.rodata.handleSlaveXferState,"a",%progbits
	.align	2
.L47:
	.word	.L46
	.word	.L52
	.word	.L52
	.word	.L52
	.word	.L52
	.word	.L52
	.word	.L52
	.word	.L52
	.word	.L46
	.word	.L52
	.word	.L52
	.word	.L52
	.word	.L52
	.word	.L52
	.word	.L52
	.word	.L52
	.word	.L46
	.word	.L52
	.word	.L52
	.word	.L52
	.word	.L52
	.word	.L52
	.word	.L52
	.word	.L52
	.word	.L46
	.word	.L52
	.word	.L52
	.word	.L52
	.word	.L52
	.word	.L52
	.word	.L52
	.word	.L52
	.word	.L48
	.word	.L52
	.word	.L52
	.word	.L52
	.word	.L52
	.word	.L52
	.word	.L52
	.word	.L52
	.word	.L49
	.word	.L52
	.word	.L52
	.word	.L52
	.word	.L52
	.word	.L52
	.word	.L52
	.word	.L52
	.word	.L48
	.word	.L52
	.word	.L52
	.word	.L52
	.word	.L52
	.word	.L52
	.word	.L52
	.word	.L52
	.word	.L49
	.word	.L52
	.word	.L52
	.word	.L52
	.word	.L52
	.word	.L52
	.word	.L52
	.word	.L52
	.word	.L49
	.word	.L52
	.word	.L52
	.word	.L52
	.word	.L52
	.word	.L52
	.word	.L52
	.word	.L52
	.word	.L50
	.word	.L52
	.word	.L52
	.word	.L52
	.word	.L52
	.word	.L52
	.word	.L52
	.word	.L52
	.word	.L50
	.word	.L52
	.word	.L52
	.word	.L52
	.word	.L52
	.word	.L52
	.word	.L52
	.word	.L52
	.word	.L51
	.word	.L52
	.word	.L52
	.word	.L52
	.word	.L52
	.word	.L52
	.word	.L52
	.word	.L52
	.word	.L49
	.word	.L52
	.word	.L52
	.word	.L52
	.word	.L52
	.word	.L52
	.word	.L52
	.word	.L52
	.word	.L49
	.section	.text.handleSlaveXferState
.L48:
	.loc 1 271 0
	ldr	r2, [r0, #8]
	ldr	r3, [r1, #12]
	adds	r4, r3, #1
	str	r4, [r1, #12]
	strb	r2, [r3]
	.loc 1 272 0
	ldr	r3, [r1, #16]
	subs	r3, r3, #1
	str	r3, [r1, #16]
.LVL36:
	.loc 1 274 0
	cmp	r3, #1
	ble	.L53
	.loc 1 273 0
	movs	r1, #5
.LVL37:
	.loc 1 275 0
	movs	r2, #56
	b	.L45
.LVL38:
.L46:
	.loc 1 283 0
	ldr	r3, [r0, #8]
	movs	r2, #1
	bics	r3, r2
	strb	r3, [r1]
	.loc 1 284 0
	ldr	r3, [r1, #16]
	cmp	r3, #1
	ble	.L54
	.loc 1 265 0
	movs	r1, #0
.LVL39:
	.loc 1 285 0
	adds	r2, r2, #55
	b	.L45
.LVL40:
.L50:
	.loc 1 291 0
	ldr	r3, [r0, #8]
	movs	r2, #1
	bics	r3, r2
	strb	r3, [r1]
.L51:
	.loc 1 294 0
	ldr	r3, [r1, #4]
	adds	r2, r3, #1
	str	r2, [r1, #4]
	ldrb	r3, [r3]
	str	r3, [r0, #8]
	.loc 1 295 0
	ldr	r3, [r1, #8]
	subs	r3, r3, #1
	str	r3, [r1, #8]
	.loc 1 296 0
	cmp	r3, #0
	ble	.L55
	.loc 1 299 0
	movs	r1, #6
.LVL41:
	.loc 1 297 0
	movs	r2, #56
.LVL42:
.L45:
	.loc 1 317 0
	movs	r3, #60
	eors	r3, r2
	str	r3, [r0]
	.loc 1 318 0
	str	r2, [r0, #24]
	.loc 1 321 0
	movs	r0, r1
.LVL43:
	@ sp needed
	pop	{r4, pc}
.LVL44:
.L49:
	.loc 1 309 0
	movs	r3, #0
	strb	r3, [r1, #20]
	.loc 1 310 0
	ldrb	r3, [r1]
	lsls	r3, r3, #31
	bpl	.L56
	.loc 1 307 0
	movs	r1, #2
.LVL45:
	.loc 1 311 0
	movs	r2, #24
	b	.L45
.LVL46:
.L52:
	.loc 1 265 0
	movs	r1, #0
.LVL47:
	.loc 1 264 0
	movs	r2, #60
	b	.L45
.LVL48:
.L53:
	.loc 1 273 0
	movs	r1, #5
.LVL49:
	.loc 1 264 0
	movs	r2, #60
	b	.L45
.LVL50:
.L54:
	.loc 1 265 0
	movs	r1, #0
.LVL51:
	.loc 1 264 0
	movs	r2, #60
	b	.L45
.LVL52:
.L55:
	.loc 1 299 0
	movs	r1, #6
.LVL53:
	.loc 1 264 0
	movs	r2, #60
	b	.L45
.LVL54:
.L56:
	.loc 1 307 0
	movs	r1, #2
.LVL55:
	.loc 1 308 0
	movs	r2, #56
	b	.L45
.L58:
	.align	2
.L57:
	.word	.L47
	.cfi_endproc
.LFE211:
	.size	handleSlaveXferState, .-handleSlaveXferState
	.section	.text.Chip_I2C_Init,"ax",%progbits
	.align	1
	.global	Chip_I2C_Init
	.syntax unified
	.code	16
	.thumb_func
	.fpu softvfp
	.type	Chip_I2C_Init, %function
Chip_I2C_Init:
.LFB214:
	.loc 1 365 0
	.cfi_startproc
	@ args = 0, pretend = 0, frame = 0
	@ frame_needed = 0, uses_anonymous_args = 0
.LVL56:
	push	{r4, r5, r6, r7, lr}
	.cfi_def_cfa_offset 20
	.cfi_offset 4, -20
	.cfi_offset 5, -16
	.cfi_offset 6, -12
	.cfi_offset 7, -8
	.cfi_offset 14, -4
.LVL57:
.LBB66:
.LBB67:
.LBB68:
.LBB69:
	.file 2 "./inc/clock_11xx.h"
	.loc 2 297 0
	ldr	r6, .L60
	movs	r5, #128
	ldr	r7, [r6, r5]
.LBE69:
.LBE68:
	.loc 1 79 0
	ldr	r4, .L60+4
	lsls	r3, r0, #3
	subs	r1, r3, r0
	lsls	r1, r1, #2
	adds	r1, r4, r1
.LBB71:
.LBB70:
	.loc 2 297 0
	ldrb	r1, [r1, #4]
	movs	r2, #1
	lsls	r2, r2, r1
	orrs	r2, r7
	str	r2, [r6, r5]
.LVL58:
.LBE70:
.LBE71:
.LBE67:
.LBE66:
	.loc 1 369 0
	subs	r3, r3, r0
	lsls	r3, r3, #2
	ldr	r3, [r3, r4]
	movs	r2, #108
	str	r2, [r3, #24]
	.loc 1 370 0
	@ sp needed
	pop	{r4, r5, r6, r7, pc}
.L61:
	.align	2
.L60:
	.word	1074036736
	.word	.LANCHOR0
	.cfi_endproc
.LFE214:
	.size	Chip_I2C_Init, .-Chip_I2C_Init
	.section	.text.Chip_I2C_DeInit,"ax",%progbits
	.align	1
	.global	Chip_I2C_DeInit
	.syntax unified
	.code	16
	.thumb_func
	.fpu softvfp
	.type	Chip_I2C_DeInit, %function
Chip_I2C_DeInit:
.LFB215:
	.loc 1 374 0
	.cfi_startproc
	@ args = 0, pretend = 0, frame = 0
	@ frame_needed = 0, uses_anonymous_args = 0
.LVL59:
	push	{r4, r5, lr}
	.cfi_def_cfa_offset 12
	.cfi_offset 4, -12
	.cfi_offset 5, -8
	.cfi_offset 14, -4
	.loc 1 376 0
	ldr	r2, .L63
	lsls	r3, r0, #3
	subs	r1, r3, r0
	lsls	r1, r1, #2
	ldr	r1, [r1, r2]
	movs	r4, #124
	str	r4, [r1, #24]
.LVL60:
.LBB72:
.LBB73:
.LBB74:
.LBB75:
	.loc 2 307 0
	ldr	r5, .L63+4
	adds	r4, r4, #4
	ldr	r1, [r5, r4]
.LBE75:
.LBE74:
	.loc 1 84 0
	subs	r3, r3, r0
	lsls	r3, r3, #2
	adds	r3, r2, r3
.LBB77:
.LBB76:
	.loc 2 307 0
	ldrb	r2, [r3, #4]
	movs	r3, #1
	lsls	r3, r3, r2
	bics	r1, r3
	str	r1, [r5, r4]
.LVL61:
.LBE76:
.LBE77:
.LBE73:
.LBE72:
	.loc 1 379 0
	@ sp needed
	pop	{r4, r5, pc}
.L64:
	.align	2
.L63:
	.word	.LANCHOR0
	.word	1074036736
	.cfi_endproc
.LFE215:
	.size	Chip_I2C_DeInit, .-Chip_I2C_DeInit
	.global	__aeabi_uidiv
	.section	.text.Chip_I2C_SetClockRate,"ax",%progbits
	.align	1
	.global	Chip_I2C_SetClockRate
	.syntax unified
	.code	16
	.thumb_func
	.fpu softvfp
	.type	Chip_I2C_SetClockRate, %function
Chip_I2C_SetClockRate:
.LFB216:
	.loc 1 383 0
	.cfi_startproc
	@ args = 0, pretend = 0, frame = 0
	@ frame_needed = 0, uses_anonymous_args = 0
.LVL62:
	push	{r4, r5, r6, lr}
	.cfi_def_cfa_offset 16
	.cfi_offset 4, -16
	.cfi_offset 5, -12
	.cfi_offset 6, -8
	.cfi_offset 14, -4
	movs	r4, r0
	movs	r5, r1
.LVL63:
.LBB78:
.LBB79:
	.loc 1 90 0
	bl	Chip_Clock_GetMainClockRate
.LVL64:
.LBE79:
.LBE78:
	.loc 1 386 0
	movs	r1, r5
	bl	__aeabi_uidiv
.LVL65:
	.loc 1 387 0
	lsls	r3, r4, #3
	subs	r3, r3, r4
	lsls	r3, r3, #2
	ldr	r2, .L66
	ldr	r3, [r3, r2]
	lsrs	r2, r0, #1
	str	r2, [r3, #16]
	.loc 1 388 0
	ldr	r2, [r3, #16]
	subs	r0, r0, r2
.LVL66:
	str	r0, [r3, #20]
	.loc 1 389 0
	@ sp needed
.LVL67:
	pop	{r4, r5, r6, pc}
.L67:
	.align	2
.L66:
	.word	.LANCHOR0
	.cfi_endproc
.LFE216:
	.size	Chip_I2C_SetClockRate, .-Chip_I2C_SetClockRate
	.section	.text.Chip_I2C_GetClockRate,"ax",%progbits
	.align	1
	.global	Chip_I2C_GetClockRate
	.syntax unified
	.code	16
	.thumb_func
	.fpu softvfp
	.type	Chip_I2C_GetClockRate, %function
Chip_I2C_GetClockRate:
.LFB217:
	.loc 1 393 0
	.cfi_startproc
	@ args = 0, pretend = 0, frame = 0
	@ frame_needed = 0, uses_anonymous_args = 0
.LVL68:
	push	{r4, lr}
	.cfi_def_cfa_offset 8
	.cfi_offset 4, -8
	.cfi_offset 14, -4
	movs	r4, r0
.LVL69:
.LBB80:
.LBB81:
	.loc 1 90 0
	bl	Chip_Clock_GetMainClockRate
.LVL70:
.LBE81:
.LBE80:
	.loc 1 394 0
	lsls	r3, r4, #3
	subs	r3, r3, r4
	lsls	r3, r3, #2
	ldr	r2, .L69
	ldr	r3, [r3, r2]
	ldr	r1, [r3, #16]
	ldr	r3, [r3, #20]
	adds	r1, r1, r3
	bl	__aeabi_uidiv
.LVL71:
	.loc 1 395 0
	@ sp needed
	pop	{r4, pc}
.L70:
	.align	2
.L69:
	.word	.LANCHOR0
	.cfi_endproc
.LFE217:
	.size	Chip_I2C_GetClockRate, .-Chip_I2C_GetClockRate
	.section	.text.Chip_I2C_SetMasterEventHandler,"ax",%progbits
	.align	1
	.global	Chip_I2C_SetMasterEventHandler
	.syntax unified
	.code	16
	.thumb_func
	.fpu softvfp
	.type	Chip_I2C_SetMasterEventHandler, %function
Chip_I2C_SetMasterEventHandler:
.LFB218:
	.loc 1 399 0
	.cfi_startproc
	@ args = 0, pretend = 0, frame = 0
	@ frame_needed = 0, uses_anonymous_args = 0
	@ link register save eliminated.
.LVL72:
	.loc 1 401 0
	lsls	r2, r0, #3
	subs	r2, r2, r0
	lsls	r2, r2, #2
	ldr	r3, .L74
	adds	r2, r3, r2
	ldr	r3, [r2, #16]
	cmp	r3, #0
	beq	.L73
.L72:
	.loc 1 404 0
	lsls	r3, r0, #3
	subs	r3, r3, r0
	lsls	r3, r3, #2
	ldr	r2, .L74
	adds	r3, r2, r3
	ldr	r0, [r3, #8]
.LVL73:
	subs	r0, r0, r1
	rsbs	r1, r0, #0
	adcs	r0, r0, r1
.LVL74:
	.loc 1 405 0
	@ sp needed
	bx	lr
.LVL75:
.L73:
	.loc 1 402 0
	lsls	r3, r0, #3
	subs	r3, r3, r0
	lsls	r3, r3, #2
	ldr	r2, .L74
	adds	r3, r2, r3
	str	r1, [r3, #8]
	b	.L72
.L75:
	.align	2
.L74:
	.word	.LANCHOR0
	.cfi_endproc
.LFE218:
	.size	Chip_I2C_SetMasterEventHandler, .-Chip_I2C_SetMasterEventHandler
	.section	.text.Chip_I2C_GetMasterEventHandler,"ax",%progbits
	.align	1
	.global	Chip_I2C_GetMasterEventHandler
	.syntax unified
	.code	16
	.thumb_func
	.fpu softvfp
	.type	Chip_I2C_GetMasterEventHandler, %function
Chip_I2C_GetMasterEventHandler:
.LFB219:
	.loc 1 409 0
	.cfi_startproc
	@ args = 0, pretend = 0, frame = 0
	@ frame_needed = 0, uses_anonymous_args = 0
	@ link register save eliminated.
.LVL76:
	.loc 1 410 0
	lsls	r3, r0, #3
	subs	r0, r3, r0
.LVL77:
	lsls	r0, r0, #2
	ldr	r3, .L77
	adds	r0, r3, r0
	ldr	r0, [r0, #8]
	.loc 1 411 0
	@ sp needed
	bx	lr
.L78:
	.align	2
.L77:
	.word	.LANCHOR0
	.cfi_endproc
.LFE219:
	.size	Chip_I2C_GetMasterEventHandler, .-Chip_I2C_GetMasterEventHandler
	.section	.text.Chip_I2C_MasterTransfer,"ax",%progbits
	.align	1
	.global	Chip_I2C_MasterTransfer
	.syntax unified
	.code	16
	.thumb_func
	.fpu softvfp
	.type	Chip_I2C_MasterTransfer, %function
Chip_I2C_MasterTransfer:
.LFB220:
	.loc 1 415 0
	.cfi_startproc
	@ args = 0, pretend = 0, frame = 0
	@ frame_needed = 0, uses_anonymous_args = 0
.LVL78:
	push	{r4, r5, r6, r7, lr}
	.cfi_def_cfa_offset 20
	.cfi_offset 4, -20
	.cfi_offset 5, -16
	.cfi_offset 6, -12
	.cfi_offset 7, -8
	.cfi_offset 14, -4
	mov	lr, r8
	push	{lr}
	.cfi_def_cfa_offset 24
	.cfi_offset 8, -24
	movs	r4, r0
	movs	r6, r1
.LVL79:
	.loc 1 418 0
	lsls	r3, r0, #3
	subs	r3, r3, r0
	lsls	r3, r3, #2
	ldr	r5, .L85
	adds	r5, r5, r3
	movs	r1, #3
.LVL80:
	ldr	r3, [r5, #8]
	blx	r3
.LVL81:
	.loc 1 419 0
	movs	r3, #4
	strb	r3, [r6, #20]
	.loc 1 420 0
	str	r6, [r5, #16]
	.loc 1 423 0
	ldr	r3, [r5, #20]
	cmp	r3, #0
	beq	.L84
.L80:
	.loc 1 426 0
	ldr	r3, .L85
	mov	r8, r3
	lsls	r5, r4, #3
	subs	r7, r5, r4
	lsls	r7, r7, #2
	add	r7, r7, r8
	movs	r1, #1
	movs	r0, r4
	ldr	r3, [r7, #8]
	blx	r3
.LVL82:
	.loc 1 427 0
	movs	r3, #0
	str	r3, [r7, #16]
	.loc 1 430 0
	subs	r5, r5, r4
	lsls	r5, r5, #2
	mov	r3, r8
	ldr	r2, [r5, r3]
.LBB82:
.LBB83:
	.loc 1 116 0
	movs	r1, #16
.L81:
.LVL83:
	.loc 1 116 0 is_stmt 0 discriminator 1
	ldr	r3, [r2]
.LVL84:
.LBE83:
.LBE82:
	.loc 1 430 0 is_stmt 1 discriminator 1
	tst	r1, r3
	bne	.L81
	.loc 1 433 0
	lsls	r3, r4, #3
	subs	r3, r3, r4
	lsls	r3, r3, #2
	ldr	r1, .L85
	adds	r3, r1, r3
	ldr	r1, [r3, #24]
	movs	r3, #255
	lsls	r3, r3, #8
	tst	r1, r3
	beq	.L82
.LVL85:
.LBB84:
.LBB85:
	.loc 1 107 0
	movs	r3, #56
	str	r3, [r2, #24]
	.loc 1 110 0
	adds	r3, r3, #12
	str	r3, [r2]
.LVL86:
.L82:
.LBE85:
.LBE84:
	.loc 1 437 0
	lsls	r3, r4, #3
	subs	r3, r3, r4
	lsls	r3, r3, #2
	ldr	r2, .L85
	adds	r3, r2, r3
	ldr	r3, [r3, #8]
	movs	r1, #4
	movs	r0, r4
	blx	r3
.LVL87:
	.loc 1 438 0
	ldrb	r0, [r6, #20]
	.loc 1 439 0
	@ sp needed
.LVL88:
.LVL89:
	pop	{r2}
	mov	r8, r2
	pop	{r4, r5, r6, r7, pc}
.LVL90:
.L84:
	.loc 1 424 0
	lsls	r3, r4, #3
	subs	r3, r3, r4
	lsls	r3, r3, #2
	ldr	r2, .L85
	ldr	r3, [r3, r2]
.LVL91:
.LBB86:
.LBB87:
	.loc 1 97 0
	movs	r2, #60
	str	r2, [r3, #24]
	.loc 1 100 0
	adds	r2, r2, #36
	str	r2, [r3]
	b	.L80
.L86:
	.align	2
.L85:
	.word	.LANCHOR0
.LBE87:
.LBE86:
	.cfi_endproc
.LFE220:
	.size	Chip_I2C_MasterTransfer, .-Chip_I2C_MasterTransfer
	.section	.text.Chip_I2C_MasterSend,"ax",%progbits
	.align	1
	.global	Chip_I2C_MasterSend
	.syntax unified
	.code	16
	.thumb_func
	.fpu softvfp
	.type	Chip_I2C_MasterSend, %function
Chip_I2C_MasterSend:
.LFB221:
	.loc 1 443 0
	.cfi_startproc
	@ args = 0, pretend = 0, frame = 24
	@ frame_needed = 0, uses_anonymous_args = 0
.LVL92:
	push	{r4, r5, r6, r7, lr}
	.cfi_def_cfa_offset 20
	.cfi_offset 4, -20
	.cfi_offset 5, -16
	.cfi_offset 6, -12
	.cfi_offset 7, -8
	.cfi_offset 14, -4
	sub	sp, sp, #28
	.cfi_def_cfa_offset 48
	movs	r4, r0
	movs	r7, r1
	movs	r6, r2
	movs	r5, r3
	.loc 1 444 0
	movs	r2, #24
.LVL93:
	movs	r1, #0
.LVL94:
	mov	r0, sp
.LVL95:
	bl	memset
.LVL96:
	.loc 1 445 0
	mov	r3, sp
	strb	r7, [r3]
	.loc 1 446 0
	str	r6, [sp, #4]
	.loc 1 447 0
	str	r5, [sp, #8]
.L88:
	.loc 1 448 0 discriminator 1
	mov	r1, sp
	movs	r0, r4
	bl	Chip_I2C_MasterTransfer
.LVL97:
	cmp	r0, #2
	beq	.L88
	.loc 1 449 0
	ldr	r3, [sp, #8]
	subs	r0, r5, r3
	.loc 1 450 0
	add	sp, sp, #28
	@ sp needed
.LVL98:
	pop	{r4, r5, r6, r7, pc}
	.cfi_endproc
.LFE221:
	.size	Chip_I2C_MasterSend, .-Chip_I2C_MasterSend
	.section	.text.Chip_I2C_MasterCmdRead,"ax",%progbits
	.align	1
	.global	Chip_I2C_MasterCmdRead
	.syntax unified
	.code	16
	.thumb_func
	.fpu softvfp
	.type	Chip_I2C_MasterCmdRead, %function
Chip_I2C_MasterCmdRead:
.LFB222:
	.loc 1 456 0
	.cfi_startproc
	@ args = 4, pretend = 0, frame = 32
	@ frame_needed = 0, uses_anonymous_args = 0
.LVL99:
	push	{r4, r5, r6, r7, lr}
	.cfi_def_cfa_offset 20
	.cfi_offset 4, -20
	.cfi_offset 5, -16
	.cfi_offset 6, -12
	.cfi_offset 7, -8
	.cfi_offset 14, -4
	sub	sp, sp, #36
	.cfi_def_cfa_offset 56
	str	r0, [sp]
	movs	r4, r1
	movs	r6, r3
	mov	r3, sp
.LVL100:
	adds	r7, r3, #7
	strb	r2, [r3, #7]
	.loc 1 457 0
	add	r5, sp, #8
	movs	r2, #24
.LVL101:
	movs	r1, #0
.LVL102:
	movs	r0, r5
.LVL103:
	bl	memset
.LVL104:
	.loc 1 458 0
	strb	r4, [r5]
	.loc 1 459 0
	str	r7, [r5, #4]
	.loc 1 460 0
	movs	r3, #1
	str	r3, [r5, #8]
	.loc 1 461 0
	str	r6, [r5, #12]
	.loc 1 462 0
	ldr	r3, [sp, #56]
	str	r3, [r5, #16]
.L91:
	.loc 1 463 0 discriminator 1
	add	r1, sp, #8
	ldr	r0, [sp]
	bl	Chip_I2C_MasterTransfer
.LVL105:
	cmp	r0, #2
	beq	.L91
	.loc 1 464 0
	ldr	r3, [sp, #56]
	ldr	r2, [sp, #24]
	subs	r0, r3, r2
	.loc 1 465 0
	add	sp, sp, #36
	@ sp needed
.LVL106:
	pop	{r4, r5, r6, r7, pc}
	.cfi_endproc
.LFE222:
	.size	Chip_I2C_MasterCmdRead, .-Chip_I2C_MasterCmdRead
	.section	.text.Chip_I2C_MasterRead,"ax",%progbits
	.align	1
	.global	Chip_I2C_MasterRead
	.syntax unified
	.code	16
	.thumb_func
	.fpu softvfp
	.type	Chip_I2C_MasterRead, %function
Chip_I2C_MasterRead:
.LFB223:
	.loc 1 469 0
	.cfi_startproc
	@ args = 0, pretend = 0, frame = 24
	@ frame_needed = 0, uses_anonymous_args = 0
.LVL107:
	push	{r4, r5, r6, r7, lr}
	.cfi_def_cfa_offset 20
	.cfi_offset 4, -20
	.cfi_offset 5, -16
	.cfi_offset 6, -12
	.cfi_offset 7, -8
	.cfi_offset 14, -4
	sub	sp, sp, #28
	.cfi_def_cfa_offset 48
	movs	r4, r0
	movs	r7, r1
	movs	r6, r2
	movs	r5, r3
	.loc 1 470 0
	movs	r2, #24
.LVL108:
	movs	r1, #0
.LVL109:
	mov	r0, sp
.LVL110:
	bl	memset
.LVL111:
	.loc 1 471 0
	mov	r3, sp
	strb	r7, [r3]
	.loc 1 472 0
	str	r6, [sp, #12]
	.loc 1 473 0
	str	r5, [sp, #16]
.L94:
	.loc 1 474 0 discriminator 1
	mov	r1, sp
	movs	r0, r4
	bl	Chip_I2C_MasterTransfer
.LVL112:
	cmp	r0, #2
	beq	.L94
	.loc 1 475 0
	ldr	r3, [sp, #16]
	subs	r0, r5, r3
	.loc 1 476 0
	add	sp, sp, #28
	@ sp needed
.LVL113:
.LVL114:
	pop	{r4, r5, r6, r7, pc}
	.cfi_endproc
.LFE223:
	.size	Chip_I2C_MasterRead, .-Chip_I2C_MasterRead
	.section	.text.Chip_I2C_IsMasterActive,"ax",%progbits
	.align	1
	.global	Chip_I2C_IsMasterActive
	.syntax unified
	.code	16
	.thumb_func
	.fpu softvfp
	.type	Chip_I2C_IsMasterActive, %function
Chip_I2C_IsMasterActive:
.LFB224:
	.loc 1 480 0
	.cfi_startproc
	@ args = 0, pretend = 0, frame = 0
	@ frame_needed = 0, uses_anonymous_args = 0
	@ link register save eliminated.
.LVL115:
	.loc 1 481 0
	lsls	r3, r0, #3
	subs	r0, r3, r0
.LVL116:
	lsls	r0, r0, #2
	ldr	r3, .L97
	ldr	r3, [r0, r3]
.LVL117:
.LBB88:
.LBB89:
.LBB90:
.LBB91:
	.loc 1 122 0
	ldr	r2, [r3, #4]
.LVL118:
	movs	r3, #248
	ands	r3, r2
.LBE91:
.LBE90:
	.loc 1 128 0
	lsrs	r0, r3, #31
	movs	r2, #95
	movs	r1, #0
	cmp	r2, r3
	adcs	r0, r0, r1
.LBE89:
.LBE88:
	.loc 1 482 0
	@ sp needed
	bx	lr
.L98:
	.align	2
.L97:
	.word	.LANCHOR0
	.cfi_endproc
.LFE224:
	.size	Chip_I2C_IsMasterActive, .-Chip_I2C_IsMasterActive
	.section	.text.Chip_I2C_MasterStateHandler,"ax",%progbits
	.align	1
	.global	Chip_I2C_MasterStateHandler
	.syntax unified
	.code	16
	.thumb_func
	.fpu softvfp
	.type	Chip_I2C_MasterStateHandler, %function
Chip_I2C_MasterStateHandler:
.LFB225:
	.loc 1 486 0
	.cfi_startproc
	@ args = 0, pretend = 0, frame = 0
	@ frame_needed = 0, uses_anonymous_args = 0
.LVL119:
	push	{r4, lr}
	.cfi_def_cfa_offset 8
	.cfi_offset 4, -8
	.cfi_offset 14, -4
	movs	r4, r0
	.loc 1 487 0
	ldr	r0, .L101
.LVL120:
	lsls	r3, r4, #3
	subs	r2, r3, r4
	lsls	r2, r2, #2
	adds	r2, r0, r2
	ldr	r1, [r2, #16]
	subs	r3, r3, r4
	lsls	r3, r3, #2
	ldr	r0, [r3, r0]
	bl	handleMasterXferState
.LVL121:
	cmp	r0, #0
	bne	.L99
	.loc 1 488 0
	lsls	r3, r4, #3
	subs	r3, r3, r4
	lsls	r3, r3, #2
	ldr	r2, .L101
	adds	r3, r2, r3
	ldr	r3, [r3, #8]
	movs	r1, #2
	movs	r0, r4
	blx	r3
.LVL122:
.L99:
	.loc 1 490 0
	@ sp needed
	pop	{r4, pc}
.L102:
	.align	2
.L101:
	.word	.LANCHOR0
	.cfi_endproc
.LFE225:
	.size	Chip_I2C_MasterStateHandler, .-Chip_I2C_MasterStateHandler
	.section	.text.Chip_I2C_SlaveSetup,"ax",%progbits
	.align	1
	.global	Chip_I2C_SlaveSetup
	.syntax unified
	.code	16
	.thumb_func
	.fpu softvfp
	.type	Chip_I2C_SlaveSetup, %function
Chip_I2C_SlaveSetup:
.LFB226:
	.loc 1 498 0
	.cfi_startproc
	@ args = 4, pretend = 0, frame = 0
	@ frame_needed = 0, uses_anonymous_args = 0
.LVL123:
	push	{r4, r5, r6, lr}
	.cfi_def_cfa_offset 16
	.cfi_offset 4, -16
	.cfi_offset 5, -12
	.cfi_offset 6, -8
	.cfi_offset 14, -4
	add	r4, sp, #16
.LVL124:
	ldrb	r6, [r4]
.LVL125:
	.loc 1 501 0
	ldr	r5, .L110
	lsls	r4, r0, #2
.LVL126:
	adds	r4, r4, r0
	adds	r4, r4, r1
	lsls	r4, r4, #3
	str	r2, [r4, r5]
	.loc 1 502 0
	adds	r4, r5, r4
	str	r3, [r4, #4]
	.loc 1 505 0
	cmp	r1, #0
	bne	.L107
.LVL127:
.L104:
	.loc 1 509 0
	lsls	r3, r0, #3
	subs	r3, r3, r0
	lsls	r3, r3, #2
	ldr	r2, .L110+4
	adds	r3, r2, r3
	ldr	r4, [r3, #24]
	movs	r3, #255
	lsls	r3, r3, #8
	tst	r4, r3
	bne	.L106
	.loc 1 509 0 is_stmt 0 discriminator 1
	lsls	r2, r0, #3
	subs	r2, r2, r0
	lsls	r2, r2, #2
	ldr	r3, .L110+4
	adds	r2, r3, r2
	ldr	r3, [r2, #16]
	cmp	r3, #0
	beq	.L108
.L106:
	.loc 1 512 0 is_stmt 1
	lsls	r2, r0, #3
	subs	r0, r2, r0
.LVL128:
	lsls	r0, r0, #2
	ldr	r2, .L110+4
	adds	r0, r2, r0
	adds	r1, r1, #8
.LVL129:
	movs	r3, #1
	lsls	r3, r3, r1
	orrs	r3, r4
	str	r3, [r0, #24]
	.loc 1 513 0
	@ sp needed
	pop	{r4, r5, r6, pc}
.LVL130:
.L107:
	.loc 1 506 0
	lsls	r3, r0, #3
.LVL131:
	subs	r3, r3, r0
	lsls	r3, r3, #2
	ldr	r4, .L110+4
.LVL132:
	ldr	r3, [r3, r4]
	ldrb	r4, [r2]
.LVL133:
.LBB97:
.LBB98:
	.loc 1 135 0
	movs	r2, r1
.LVL134:
	adds	r2, r2, #11
	lsls	r2, r2, #2
	str	r6, [r2, r3]
	.loc 1 136 0
	cmp	r1, #1
	beq	.L109
.LVL135:
.LBB99:
	.loc 1 140 0
	adds	r3, r3, #32
.LVL136:
	.loc 1 141 0
	ldr	r2, .L110+8
	adds	r2, r1, r2
	lsls	r2, r2, #2
	adds	r3, r3, r2
.LVL137:
	str	r4, [r3]
	b	.L104
.LVL138:
.L109:
.LBE99:
	.loc 1 137 0
	str	r4, [r3, #12]
	b	.L104
.LVL139:
.L108:
.LBE98:
.LBE97:
	.loc 1 510 0
	lsls	r3, r0, #3
	subs	r3, r3, r0
	lsls	r3, r3, #2
	ldr	r2, .L110+4
	ldr	r3, [r3, r2]
.LVL140:
.LBB100:
.LBB101:
	.loc 1 107 0
	movs	r2, #56
	str	r2, [r3, #24]
	.loc 1 110 0
	adds	r2, r2, #12
	str	r2, [r3]
	b	.L106
.L111:
	.align	2
.L110:
	.word	.LANCHOR1
	.word	.LANCHOR0
	.word	1073741822
.LBE101:
.LBE100:
	.cfi_endproc
.LFE226:
	.size	Chip_I2C_SlaveSetup, .-Chip_I2C_SlaveSetup
	.section	.text.Chip_I2C_SlaveStateHandler,"ax",%progbits
	.align	1
	.global	Chip_I2C_SlaveStateHandler
	.syntax unified
	.code	16
	.thumb_func
	.fpu softvfp
	.type	Chip_I2C_SlaveStateHandler, %function
Chip_I2C_SlaveStateHandler:
.LFB227:
	.loc 1 517 0
	.cfi_startproc
	@ args = 0, pretend = 0, frame = 0
	@ frame_needed = 0, uses_anonymous_args = 0
.LVL141:
	push	{r4, r5, r6, lr}
	.cfi_def_cfa_offset 16
	.cfi_offset 4, -16
	.cfi_offset 5, -12
	.cfi_offset 6, -8
	.cfi_offset 14, -4
	movs	r4, r0
.LVL142:
	.loc 1 522 0
	lsls	r3, r0, #3
	subs	r3, r3, r0
	lsls	r3, r3, #2
	ldr	r2, .L117
	adds	r3, r2, r3
	ldr	r3, [r3, #20]
	cmp	r3, #0
	beq	.L116
.LVL143:
.L113:
	.loc 1 531 0
	ldr	r1, .L117
	lsls	r3, r4, #3
	subs	r2, r3, r4
	lsls	r2, r2, #2
	adds	r2, r1, r2
	ldr	r5, [r2, #20]
	ldr	r2, [r2, #16]
	subs	r0, r2, #1
	sbcs	r2, r2, r0
	ldrb	r0, [r5]
	orrs	r2, r0
	strb	r2, [r5]
	.loc 1 532 0
	subs	r3, r3, r4
	lsls	r3, r3, #2
	ldr	r0, [r3, r1]
	movs	r1, r5
	bl	handleSlaveXferState
.LVL144:
	.loc 1 533 0
	cmp	r0, #0
	beq	.L112
	.loc 1 534 0
	ldrb	r3, [r5, #20]
	cmp	r3, #0
	bne	.L115
	.loc 1 535 0
	lsls	r3, r4, #3
	subs	r3, r3, r4
	lsls	r3, r3, #2
	ldr	r2, .L117
	adds	r3, r2, r3
	movs	r2, #0
	str	r2, [r3, #20]
.L115:
	.loc 1 537 0
	uxtb	r1, r0
	lsls	r3, r4, #3
	subs	r3, r3, r4
	lsls	r3, r3, #2
	ldr	r2, .L117
	adds	r3, r2, r3
	ldr	r3, [r3, #12]
	movs	r0, r4
.LVL145:
	blx	r3
.LVL146:
.L112:
	.loc 1 539 0
	@ sp needed
.LVL147:
	pop	{r4, r5, r6, pc}
.LVL148:
.L116:
.LBB102:
	.loc 1 525 0
	movs	r6, r2
	lsls	r5, r0, #3
	subs	r3, r5, r0
	lsls	r3, r3, #2
	ldr	r0, [r3, r2]
.LVL149:
	bl	getSlaveIndex
.LVL150:
	.loc 1 527 0
	subs	r5, r5, r4
	lsls	r5, r5, #2
	adds	r5, r6, r5
	ldr	r2, .L117+4
	lsls	r3, r4, #2
	adds	r3, r3, r4
	adds	r0, r3, r0
.LVL151:
	lsls	r0, r0, #3
	ldr	r3, [r0, r2]
	str	r3, [r5, #20]
	.loc 1 528 0
	adds	r0, r2, r0
	ldr	r3, [r0, #4]
	str	r3, [r5, #12]
	b	.L113
.L118:
	.align	2
.L117:
	.word	.LANCHOR0
	.word	.LANCHOR1
.LBE102:
	.cfi_endproc
.LFE227:
	.size	Chip_I2C_SlaveStateHandler, .-Chip_I2C_SlaveStateHandler
	.section	.text.Chip_I2C_Disable,"ax",%progbits
	.align	1
	.global	Chip_I2C_Disable
	.syntax unified
	.code	16
	.thumb_func
	.fpu softvfp
	.type	Chip_I2C_Disable, %function
Chip_I2C_Disable:
.LFB228:
	.loc 1 543 0
	.cfi_startproc
	@ args = 0, pretend = 0, frame = 0
	@ frame_needed = 0, uses_anonymous_args = 0
	@ link register save eliminated.
.LVL152:
	.loc 1 544 0
	lsls	r3, r0, #3
	subs	r0, r3, r0
.LVL153:
	lsls	r0, r0, #2
	ldr	r3, .L120
	ldr	r3, [r0, r3]
	movs	r2, #64
	str	r2, [r3, #24]
	.loc 1 545 0
	@ sp needed
	bx	lr
.L121:
	.align	2
.L120:
	.word	.LANCHOR0
	.cfi_endproc
.LFE228:
	.size	Chip_I2C_Disable, .-Chip_I2C_Disable
	.section	.text.Chip_I2C_IsStateChanged,"ax",%progbits
	.align	1
	.global	Chip_I2C_IsStateChanged
	.syntax unified
	.code	16
	.thumb_func
	.fpu softvfp
	.type	Chip_I2C_IsStateChanged, %function
Chip_I2C_IsStateChanged:
.LFB229:
	.loc 1 549 0
	.cfi_startproc
	@ args = 0, pretend = 0, frame = 0
	@ frame_needed = 0, uses_anonymous_args = 0
	@ link register save eliminated.
.LVL154:
	.loc 1 550 0
	lsls	r3, r0, #3
	subs	r0, r3, r0
.LVL155:
	lsls	r0, r0, #2
	ldr	r3, .L123
	ldr	r3, [r0, r3]
	ldr	r0, [r3]
	lsls	r0, r0, #28
	lsrs	r0, r0, #31
	.loc 1 551 0
	@ sp needed
	bx	lr
.L124:
	.align	2
.L123:
	.word	.LANCHOR0
	.cfi_endproc
.LFE229:
	.size	Chip_I2C_IsStateChanged, .-Chip_I2C_IsStateChanged
	.section	.text.Chip_I2C_EventHandlerPolling,"ax",%progbits
	.align	1
	.global	Chip_I2C_EventHandlerPolling
	.syntax unified
	.code	16
	.thumb_func
	.fpu softvfp
	.type	Chip_I2C_EventHandlerPolling, %function
Chip_I2C_EventHandlerPolling:
.LFB213:
	.loc 1 345 0
	.cfi_startproc
	@ args = 0, pretend = 0, frame = 0
	@ frame_needed = 0, uses_anonymous_args = 0
.LVL156:
	push	{r4, r5, r6, lr}
	.cfi_def_cfa_offset 16
	.cfi_offset 4, -16
	.cfi_offset 5, -12
	.cfi_offset 6, -8
	.cfi_offset 14, -4
	movs	r4, r0
.LVL157:
	.loc 1 350 0
	cmp	r1, #1
	beq	.L131
.LVL158:
.L125:
	.loc 1 361 0
	@ sp needed
	pop	{r4, r5, r6, pc}
.LVL159:
.L131:
	.loc 1 354 0
	lsls	r3, r0, #3
	subs	r3, r3, r0
	lsls	r3, r3, #2
	ldr	r2, .L132
	adds	r3, r2, r3
	ldr	r5, [r3, #16]
.LVL160:
.L128:
	.loc 1 356 0
	ldrb	r3, [r5, #20]
	cmp	r3, #4
	bne	.L125
	.loc 1 357 0
	movs	r0, r4
	bl	Chip_I2C_IsStateChanged
.LVL161:
	cmp	r0, #0
	beq	.L128
	.loc 1 358 0
	movs	r0, r4
	bl	Chip_I2C_MasterStateHandler
.LVL162:
	b	.L128
.L133:
	.align	2
.L132:
	.word	.LANCHOR0
	.cfi_endproc
.LFE213:
	.size	Chip_I2C_EventHandlerPolling, .-Chip_I2C_EventHandlerPolling
	.section	.bss.i2c_slave,"aw",%nobits
	.align	2
	.set	.LANCHOR1,. + 0
	.type	i2c_slave, %object
	.size	i2c_slave, 40
i2c_slave:
	.space	40
	.section	.data.i2c,"aw",%progbits
	.align	2
	.set	.LANCHOR0,. + 0
	.type	i2c, %object
	.size	i2c, 28
i2c:
	.word	1073741824
	.byte	5
	.space	3
	.word	Chip_I2C_EventHandler
	.word	0
	.word	0
	.word	0
	.word	0
	.text
.Letext0:
	.file 3 "/Developer/arm/gcc-arm-none-eabi/arm-none-eabi/include/machine/_default_types.h"
	.file 4 "/Developer/arm/gcc-arm-none-eabi/arm-none-eabi/include/sys/_stdint.h"
	.file 5 "./inc/chip.h"
	.file 6 "./inc/sysctl_11xx.h"
	.file 7 "./inc/i2c_11xx.h"
	.file 8 "<built-in>"