	.cpu cortex-m0
	.eabi_attribute 20, 1
	.eabi_attribute 21, 1
	.eabi_attribute 23, 3
	.eabi_attribute 24, 1
	.eabi_attribute 25, 1
	.eabi_attribute 26, 1
	.eabi_attribute 30, 1
	.eabi_attribute 34, 0
	.eabi_attribute 18, 4
	.file	"pmu_11xx.c"
	.text
.Ltext0:
	.cfi_sections	.debug_frame
	.section	.text.Chip_PMU_SleepState,"ax",%progbits
	.align	1
	.global	Chip_PMU_SleepState
	.syntax unified
	.code	16
	.thumb_func
	.fpu softvfp
	.type	Chip_PMU_SleepState, %function
Chip_PMU_SleepState:
.LFB198:
	.file 1 "src/pmu_11xx.c"
	.loc 1 54 0
	.cfi_startproc
	@ args = 0, pretend = 0, frame = 0
	@ frame_needed = 0, uses_anonymous_args = 0
	@ link register save eliminated.
.LVL0:
	.loc 1 55 0
	movs	r3, #0
	str	r3, [r0]
.LBB6:
.LBB7:
	.file 2 "./inc/core_cmInstr.h"
	.loc 2 299 0
	.syntax divided
@ 299 "./inc/core_cmInstr.h" 1
	wfi
@ 0 "" 2
	.thumb
	.syntax unified
.LBE7:
.LBE6:
	.loc 1 59 0
	@ sp needed
	bx	lr
	.cfi_endproc
.LFE198:
	.size	Chip_PMU_SleepState, .-Chip_PMU_SleepState
	.section	.text.Chip_PMU_DeepPowerDownState,"ax",%progbits
	.align	1
	.global	Chip_PMU_DeepPowerDownState
	.syntax unified
	.code	16
	.thumb_func
	.fpu softvfp
	.type	Chip_PMU_DeepPowerDownState, %function
Chip_PMU_DeepPowerDownState:
.LFB199:
	.loc 1 85 0
	.cfi_startproc
	@ args = 0, pretend = 0, frame = 0
	@ frame_needed = 0, uses_anonymous_args = 0
	@ link register save eliminated.
.LVL1:
	.loc 1 86 0
	ldr	r2, .L3
	ldr	r3, [r2, #16]
	movs	r1, #4
	orrs	r3, r1
	str	r3, [r2, #16]
	.loc 1 87 0
	movs	r3, #2
	str	r3, [r0]
.LBB8:
.LBB9:
	.loc 2 299 0
	.syntax divided
@ 299 "./inc/core_cmInstr.h" 1
	wfi
@ 0 "" 2
	.thumb
	.syntax unified
.LBE9:
.LBE8:
	.loc 1 91 0
	@ sp needed
	bx	lr
.L4:
	.align	2
.L3:
	.word	-536810240
	.cfi_endproc
.LFE199:
	.size	Chip_PMU_DeepPowerDownState, .-Chip_PMU_DeepPowerDownState
	.section	.text.Chip_PMU_Sleep,"ax",%progbits
	.align	1
	.global	Chip_PMU_Sleep
	.syntax unified
	.code	16
	.thumb_func
	.fpu softvfp
	.type	Chip_PMU_Sleep, %function
Chip_PMU_Sleep:
.LFB200:
	.loc 1 95 0
	.cfi_startproc
	@ args = 0, pretend = 0, frame = 0
	@ frame_needed = 0, uses_anonymous_args = 0
.LVL2:
	push	{r4, lr}
	.cfi_def_cfa_offset 8
	.cfi_offset 4, -8
	.cfi_offset 14, -4
	.loc 1 111 0
	cmp	r1, #3
	beq	.L7
.LVL3:
.L5:
	.loc 1 115 0
	@ sp needed
	pop	{r4, pc}
.LVL4:
.L7:
	.loc 1 112 0
	bl	Chip_PMU_DeepPowerDownState
.LVL5:
	.loc 1 115 0
	b	.L5
	.cfi_endproc
.LFE200:
	.size	Chip_PMU_Sleep, .-Chip_PMU_Sleep
	.text
.Letext0:
	.file 3 "/Developer/arm/gcc-arm-none-eabi/arm-none-eabi/include/machine/_default_types.h"
	.file 4 "/Developer/arm/gcc-arm-none-eabi/arm-none-eabi/include/sys/_stdint.h"
	.file 5 "./inc/core_cm0.h"
	.file 6 "./inc/chip.h"
	.file 7 "./inc/pmu_11xx.h"