	.cpu cortex-m0
	.eabi_attribute 20, 1
	.eabi_attribute 21, 1
	.eabi_attribute 23, 3
	.eabi_attribute 24, 1
	.eabi_attribute 25, 1
	.eabi_attribute 26, 1
	.eabi_attribute 30, 1
	.eabi_attribute 34, 0
	.eabi_attribute 18, 4
	.file	"sysctl_11xx.c"
	.text
.Ltext0:
	.cfi_sections	.debug_frame
	.section	.text.Chip_SYSCTL_SetDeepSleepPD,"ax",%progbits
	.align	1
	.global	Chip_SYSCTL_SetDeepSleepPD
	.syntax unified
	.code	16
	.thumb_func
	.fpu softvfp
	.type	Chip_SYSCTL_SetDeepSleepPD, %function
Chip_SYSCTL_SetDeepSleepPD:
.LFB198:
	.file 1 "src/sysctl_11xx.c"
	.loc 1 89 0
	.cfi_startproc
	@ args = 0, pretend = 0, frame = 0
	@ frame_needed = 0, uses_anonymous_args = 0
	@ link register save eliminated.
.LVL0:
	.loc 1 91 0
	movs	r3, #255
	ands	r3, r0
	ldr	r0, .L2
.LVL1:
	orrs	r0, r3
	ldr	r2, .L2+4
	movs	r3, #140
	lsls	r3, r3, #2
	str	r0, [r2, r3]
	.loc 1 92 0
	@ sp needed
	bx	lr
.L3:
	.align	2
.L2:
	.word	6327
	.word	1074036736
	.cfi_endproc
.LFE198:
	.size	Chip_SYSCTL_SetDeepSleepPD, .-Chip_SYSCTL_SetDeepSleepPD
	.section	.text.Chip_SYSCTL_SetWakeup,"ax",%progbits
	.align	1
	.global	Chip_SYSCTL_SetWakeup
	.syntax unified
	.code	16
	.thumb_func
	.fpu softvfp
	.type	Chip_SYSCTL_SetWakeup, %function
Chip_SYSCTL_SetWakeup:
.LFB199:
	.loc 1 96 0
	.cfi_startproc
	@ args = 0, pretend = 0, frame = 0
	@ frame_needed = 0, uses_anonymous_args = 0
	@ link register save eliminated.
.LVL2:
	.loc 1 98 0
	movs	r3, #255
	ands	r3, r0
	movs	r0, #237
.LVL3:
	lsls	r0, r0, #8
	orrs	r0, r3
	ldr	r2, .L5
	movs	r3, #141
	lsls	r3, r3, #2
	str	r0, [r2, r3]
	.loc 1 99 0
	@ sp needed
	bx	lr
.L6:
	.align	2
.L5:
	.word	1074036736
	.cfi_endproc
.LFE199:
	.size	Chip_SYSCTL_SetWakeup, .-Chip_SYSCTL_SetWakeup
	.section	.text.Chip_SYSCTL_PowerDown,"ax",%progbits
	.align	1
	.global	Chip_SYSCTL_PowerDown
	.syntax unified
	.code	16
	.thumb_func
	.fpu softvfp
	.type	Chip_SYSCTL_PowerDown, %function
Chip_SYSCTL_PowerDown:
.LFB200:
	.loc 1 105 0
	.cfi_startproc
	@ args = 0, pretend = 0, frame = 0
	@ frame_needed = 0, uses_anonymous_args = 0
	@ link register save eliminated.
.LVL4:
	.loc 1 108 0
	ldr	r1, .L8
	movs	r2, #142
	lsls	r2, r2, #2
	ldr	r3, [r1, r2]
.LVL5:
	.loc 1 109 0
	orrs	r0, r3
.LVL6:
	movs	r3, #255
.LVL7:
	ands	r3, r0
.LVL8:
	.loc 1 111 0
	movs	r0, #237
	lsls	r0, r0, #8
	orrs	r0, r3
	str	r0, [r1, r2]
	.loc 1 112 0
	@ sp needed
	bx	lr
.L9:
	.align	2
.L8:
	.word	1074036736
	.cfi_endproc
.LFE200:
	.size	Chip_SYSCTL_PowerDown, .-Chip_SYSCTL_PowerDown
	.section	.text.Chip_SYSCTL_PowerUp,"ax",%progbits
	.align	1
	.global	Chip_SYSCTL_PowerUp
	.syntax unified
	.code	16
	.thumb_func
	.fpu softvfp
	.type	Chip_SYSCTL_PowerUp, %function
Chip_SYSCTL_PowerUp:
.LFB201:
	.loc 1 116 0
	.cfi_startproc
	@ args = 0, pretend = 0, frame = 0
	@ frame_needed = 0, uses_anonymous_args = 0
.LVL9:
	push	{r4, lr}
	.cfi_def_cfa_offset 8
	.cfi_offset 4, -8
	.cfi_offset 14, -4
	.loc 1 119 0
	ldr	r4, .L11
	movs	r1, #142
	lsls	r1, r1, #2
	ldr	r3, [r4, r1]
	movs	r2, #255
	ands	r3, r2
.LVL10:
	.loc 1 120 0
	ands	r2, r0
	bics	r3, r2
.LVL11:
	.loc 1 122 0
	movs	r2, #237
	lsls	r2, r2, #8
	orrs	r3, r2
	str	r3, [r4, r1]
	.loc 1 123 0
	@ sp needed
	pop	{r4, pc}
.L12:
	.align	2
.L11:
	.word	1074036736
	.cfi_endproc
.LFE201:
	.size	Chip_SYSCTL_PowerUp, .-Chip_SYSCTL_PowerUp
	.text
.Letext0:
	.file 2 "/Developer/arm/gcc-arm-none-eabi/arm-none-eabi/include/machine/_default_types.h"
	.file 3 "/Developer/arm/gcc-arm-none-eabi/arm-none-eabi/include/sys/_stdint.h"
	.file 4 "./inc/chip.h"
	.file 5 "./inc/sysctl_11xx.h"