	.cpu cortex-m0
	.eabi_attribute 20, 1
	.eabi_attribute 21, 1
	.eabi_attribute 23, 3
	.eabi_attribute 24, 1
	.eabi_attribute 25, 1
	.eabi_attribute 26, 1
	.eabi_attribute 30, 1
	.eabi_attribute 34, 0
	.eabi_attribute 18, 4
	.file	"timer_11xx.c"
	.text
.Ltext0:
	.cfi_sections	.debug_frame
	.section	.text.Chip_TIMER_Init,"ax",%progbits
	.align	1
	.global	Chip_TIMER_Init
	.syntax unified
	.code	16
	.thumb_func
	.fpu softvfp
	.type	Chip_TIMER_Init, %function
Chip_TIMER_Init:
.LFB199:
	.file 1 "src/timer_11xx.c"
	.loc 1 72 0
	.cfi_startproc
	@ args = 0, pretend = 0, frame = 0
	@ frame_needed = 0, uses_anonymous_args = 0
.LVL0:
	push	{r4, lr}
	.cfi_def_cfa_offset 8
	.cfi_offset 4, -8
	.cfi_offset 14, -4
.LVL1:
.LBB10:
.LBB11:
	.loc 1 50 0
	ldr	r3, .L6
	cmp	r0, r3
	beq	.L3
	.loc 1 53 0
	ldr	r3, .L6+4
	cmp	r0, r3
	beq	.L4
	.loc 1 60 0
	ldr	r3, .L6+8
	mov	ip, r3
	add	r0, r0, ip
.LVL2:
	subs	r3, r0, #1
	sbcs	r0, r0, r3
.LVL3:
	adds	r0, r0, #8
.L2:
.LVL4:
.LBE11:
.LBE10:
.LBB13:
.LBB14:
	.file 2 "./inc/clock_11xx.h"
	.loc 2 297 0
	ldr	r1, .L6+12
	movs	r2, #128
	ldr	r4, [r1, r2]
	movs	r3, #1
	lsls	r3, r3, r0
	orrs	r3, r4
	str	r3, [r1, r2]
.LBE14:
.LBE13:
	.loc 1 74 0
	@ sp needed
	pop	{r4, pc}
.LVL5:
.L3:
.LBB15:
.LBB12:
	.loc 1 51 0
	movs	r0, #10
.LVL6:
	b	.L2
.LVL7:
.L4:
	.loc 1 54 0
	movs	r0, #7
.LVL8:
	b	.L2
.L7:
	.align	2
.L6:
	.word	1073840128
	.word	1073790976
	.word	-1073807360
	.word	1074036736
.LBE12:
.LBE15:
	.cfi_endproc
.LFE199:
	.size	Chip_TIMER_Init, .-Chip_TIMER_Init
	.section	.text.Chip_TIMER_DeInit,"ax",%progbits
	.align	1
	.global	Chip_TIMER_DeInit
	.syntax unified
	.code	16
	.thumb_func
	.fpu softvfp
	.type	Chip_TIMER_DeInit, %function
Chip_TIMER_DeInit:
.LFB200:
	.loc 1 78 0
	.cfi_startproc
	@ args = 0, pretend = 0, frame = 0
	@ frame_needed = 0, uses_anonymous_args = 0
.LVL9:
	push	{r4, lr}
	.cfi_def_cfa_offset 8
	.cfi_offset 4, -8
	.cfi_offset 14, -4
.LVL10:
.LBB20:
.LBB21:
	.loc 1 50 0
	ldr	r3, .L13
	cmp	r0, r3
	beq	.L10
	.loc 1 53 0
	ldr	r3, .L13+4
	cmp	r0, r3
	beq	.L11
	.loc 1 60 0
	ldr	r3, .L13+8
	mov	ip, r3
	add	r0, r0, ip
.LVL11:
	subs	r3, r0, #1
	sbcs	r0, r0, r3
.LVL12:
	adds	r0, r0, #8
.L9:
.LVL13:
.LBE21:
.LBE20:
.LBB23:
.LBB24:
	.loc 2 307 0
	ldr	r4, .L13+12
	movs	r1, #128
	ldr	r3, [r4, r1]
	movs	r2, #1
	lsls	r2, r2, r0
	bics	r3, r2
	str	r3, [r4, r1]
.LBE24:
.LBE23:
	.loc 1 80 0
	@ sp needed
	pop	{r4, pc}
.LVL14:
.L10:
.LBB25:
.LBB22:
	.loc 1 51 0
	movs	r0, #10
.LVL15:
	b	.L9
.LVL16:
.L11:
	.loc 1 54 0
	movs	r0, #7
.LVL17:
	b	.L9
.L14:
	.align	2
.L13:
	.word	1073840128
	.word	1073790976
	.word	-1073807360
	.word	1074036736
.LBE22:
.LBE25:
	.cfi_endproc
.LFE200:
	.size	Chip_TIMER_DeInit, .-Chip_TIMER_DeInit
	.section	.text.Chip_TIMER_Reset,"ax",%progbits
	.align	1
	.global	Chip_TIMER_Reset
	.syntax unified
	.code	16
	.thumb_func
	.fpu softvfp
	.type	Chip_TIMER_Reset, %function
Chip_TIMER_Reset:
.LFB201:
	.loc 1 84 0
	.cfi_startproc
	@ args = 0, pretend = 0, frame = 0
	@ frame_needed = 0, uses_anonymous_args = 0
	@ link register save eliminated.
.LVL18:
	.loc 1 88 0
	ldr	r2, [r0, #4]
.LVL19:
	.loc 1 89 0
	movs	r3, #0
	str	r3, [r0, #4]
	.loc 1 90 0
	adds	r3, r3, #1
	str	r3, [r0, #8]
	.loc 1 93 0
	adds	r3, r3, #1
	str	r3, [r0, #4]
.L16:
	.loc 1 96 0 discriminator 1
	ldr	r3, [r0, #8]
	cmp	r3, #0
	bne	.L16
	.loc 1 99 0
	str	r2, [r0, #4]
	.loc 1 100 0
	@ sp needed
	bx	lr
	.cfi_endproc
.LFE201:
	.size	Chip_TIMER_Reset, .-Chip_TIMER_Reset
	.section	.text.Chip_TIMER_ExtMatchControlSet,"ax",%progbits
	.align	1
	.global	Chip_TIMER_ExtMatchControlSet
	.syntax unified
	.code	16
	.thumb_func
	.fpu softvfp
	.type	Chip_TIMER_ExtMatchControlSet, %function
Chip_TIMER_ExtMatchControlSet:
.LFB202:
	.loc 1 105 0
	.cfi_startproc
	@ args = 0, pretend = 0, frame = 0
	@ frame_needed = 0, uses_anonymous_args = 0
.LVL20:
	push	{r4, r5, r6, r7, lr}
	.cfi_def_cfa_offset 20
	.cfi_offset 4, -20
	.cfi_offset 5, -16
	.cfi_offset 6, -12
	.cfi_offset 7, -8
	.cfi_offset 14, -4
	.loc 1 109 0
	adds	r6, r3, #2
	lsls	r6, r6, #1
.LVL21:
	.loc 1 110 0
	ldr	r5, [r0, #60]
	.loc 1 109 0
	movs	r4, #1
	lsls	r4, r4, r3
	movs	r7, #3
	lsls	r7, r7, r6
	orrs	r4, r7
.LVL22:
	.loc 1 110 0
	bics	r5, r4
	str	r5, [r0, #60]
.LVL23:
	.loc 1 113 0
	lsls	r1, r1, r3
.LVL24:
	.loc 1 114 0
	lsls	r2, r2, r6
.LVL25:
	.loc 1 113 0
	orrs	r1, r2
	orrs	r1, r5
	str	r1, [r0, #60]
	.loc 1 115 0
	@ sp needed
.LVL26:
.LVL27:
.LVL28:
	pop	{r4, r5, r6, r7, pc}
	.cfi_endproc
.LFE202:
	.size	Chip_TIMER_ExtMatchControlSet, .-Chip_TIMER_ExtMatchControlSet
	.text
.Letext0:
	.file 3 "/Developer/arm/gcc-arm-none-eabi/arm-none-eabi/include/machine/_default_types.h"
	.file 4 "/Developer/arm/gcc-arm-none-eabi/arm-none-eabi/include/sys/_stdint.h"
	.file 5 "./inc/chip.h"
	.file 6 "./inc/sysctl_11xx.h"
	.file 7 "./inc/timer_11xx.h"