	.cpu cortex-m0
	.eabi_attribute 20, 1
	.eabi_attribute 21, 1
	.eabi_attribute 23, 3
	.eabi_attribute 24, 1
	.eabi_attribute 25, 1
	.eabi_attribute 26, 1
	.eabi_attribute 30, 1
	.eabi_attribute 34, 0
	.eabi_attribute 18, 4
	.file	"wwdt_11xx.c"
	.text
.Ltext0:
	.cfi_sections	.debug_frame
	.section	.text.Chip_WWDT_Init,"ax",%progbits
	.align	1
	.global	Chip_WWDT_Init
	.syntax unified
	.code	16
	.thumb_func
	.fpu softvfp
	.type	Chip_WWDT_Init, %function
Chip_WWDT_Init:
.LFB198:
	.file 1 "src/wwdt_11xx.c"
	.loc 1 52 0
	.cfi_startproc
	@ args = 0, pretend = 0, frame = 0
	@ frame_needed = 0, uses_anonymous_args = 0
.LVL0:
	push	{r4, lr}
	.cfi_def_cfa_offset 8
	.cfi_offset 4, -8
	.cfi_offset 14, -4
.LVL1:
.LBB6:
.LBB7:
	.file 2 "./inc/clock_11xx.h"
	.loc 2 297 0
	ldr	r1, .L2
	movs	r2, #128
	ldr	r4, [r1, r2]
	movs	r3, #128
	lsls	r3, r3, #8
	orrs	r3, r4
	str	r3, [r1, r2]
.LVL2:
.LBE7:
.LBE6:
	.loc 1 56 0
	movs	r3, #0
	str	r3, [r0]
	.loc 1 57 0
	adds	r3, r3, #255
	str	r3, [r0, #4]
	.loc 1 62 0
	@ sp needed
	pop	{r4, pc}
.L3:
	.align	2
.L2:
	.word	1074036736
	.cfi_endproc
.LFE198:
	.size	Chip_WWDT_Init, .-Chip_WWDT_Init
	.section	.text.Chip_WWDT_DeInit,"ax",%progbits
	.align	1
	.global	Chip_WWDT_DeInit
	.syntax unified
	.code	16
	.thumb_func
	.fpu softvfp
	.type	Chip_WWDT_DeInit, %function
Chip_WWDT_DeInit:
.LFB199:
	.loc 1 66 0
	.cfi_startproc
	@ args = 0, pretend = 0, frame = 0
	@ frame_needed = 0, uses_anonymous_args = 0
	@ link register save eliminated.
.LVL3:
.LBB8:
.LBB9:
	.loc 2 307 0
	ldr	r1, .L5
	movs	r2, #128
	ldr	r3, [r1, r2]
	ldr	r0, .L5+4
.LVL4:
	ands	r3, r0
	str	r3, [r1, r2]
.LVL5:
.LBE9:
.LBE8:
	.loc 1 68 0
	@ sp needed
	bx	lr
.L6:
	.align	2
.L5:
	.word	1074036736
	.word	-32769
	.cfi_endproc
.LFE199:
	.size	Chip_WWDT_DeInit, .-Chip_WWDT_DeInit
	.section	.text.Chip_WWDT_ClearStatusFlag,"ax",%progbits
	.align	1
	.global	Chip_WWDT_ClearStatusFlag
	.syntax unified
	.code	16
	.thumb_func
	.fpu softvfp
	.type	Chip_WWDT_ClearStatusFlag, %function
Chip_WWDT_ClearStatusFlag:
.LFB200:
	.loc 1 72 0
	.cfi_startproc
	@ args = 0, pretend = 0, frame = 0
	@ frame_needed = 0, uses_anonymous_args = 0
	@ link register save eliminated.
.LVL6:
	.loc 1 73 0
	lsls	r3, r1, #29
	bpl	.L8
	.loc 1 74 0
	ldr	r2, [r0]
	movs	r3, #27
	ands	r3, r2
	str	r3, [r0]
.L8:
	.loc 1 77 0
	lsls	r3, r1, #28
	bpl	.L7
	.loc 1 78 0
	ldr	r3, [r0]
	movs	r2, #8
	orrs	r3, r2
	str	r3, [r0]
.L7:
	.loc 1 80 0
	@ sp needed
	bx	lr
	.cfi_endproc
.LFE200:
	.size	Chip_WWDT_ClearStatusFlag, .-Chip_WWDT_ClearStatusFlag
	.text
.Letext0:
	.file 3 "/Developer/arm/gcc-arm-none-eabi/arm-none-eabi/include/machine/_default_types.h"
	.file 4 "/Developer/arm/gcc-arm-none-eabi/arm-none-eabi/include/sys/_stdint.h"
	.file 5 "./inc/chip.h"
	.file 6 "./inc/sysctl_11xx.h"
	.file 7 "./inc/wwdt_11xx.h"