	.cpu cortex-m0
	.eabi_attribute 20, 1
	.eabi_attribute 21, 1
	.eabi_attribute 23, 3
	.eabi_attribute 24, 1
	.eabi_attribute 25, 1
	.eabi_attribute 26, 1
	.eabi_attribute 30, 1
	.eabi_attribute 34, 0
	.eabi_attribute 18, 4
	.file	"ring_buffer.c"
	.text
.Ltext0:
	.cfi_sections	.debug_frame
	.section	.text.RingBuffer_Init,"ax",%progbits
	.align	1
	.global	RingBuffer_Init
	.syntax unified
	.code	16
	.thumb_func
	.fpu softvfp
	.type	RingBuffer_Init, %function
RingBuffer_Init:
.LFB6:
	.file 1 "src/ring_buffer.c"
	.loc 1 56 0
	.cfi_startproc
	@ args = 0, pretend = 0, frame = 0
	@ frame_needed = 0, uses_anonymous_args = 0
	@ link register save eliminated.
.LVL0:
	.loc 1 57 0
	str	r1, [r0]
	.loc 1 58 0
	str	r3, [r0, #4]
	.loc 1 59 0
	str	r2, [r0, #8]
	.loc 1 60 0
	movs	r3, #0
.LVL1:
	str	r3, [r0, #16]
	str	r3, [r0, #12]
	.loc 1 63 0
	movs	r0, #1
.LVL2:
	@ sp needed
	bx	lr
	.cfi_endproc
.LFE6:
	.size	RingBuffer_Init, .-RingBuffer_Init
	.section	.text.RingBuffer_Insert,"ax",%progbits
	.align	1
	.global	RingBuffer_Insert
	.syntax unified
	.code	16
	.thumb_func
	.fpu softvfp
	.type	RingBuffer_Insert, %function
RingBuffer_Insert:
.LFB7:
	.loc 1 67 0
	.cfi_startproc
	@ args = 0, pretend = 0, frame = 0
	@ frame_needed = 0, uses_anonymous_args = 0
.LVL3:
	push	{r4, lr}
	.cfi_def_cfa_offset 8
	.cfi_offset 4, -8
	.cfi_offset 14, -4
	movs	r4, r0
.LVL4:
.LBB24:
.LBB25:
.LBB26:
.LBB27:
	.file 2 "./inc/ring_buffer.h"
	.loc 2 105 0
	ldr	r3, [r0, #12]
	ldr	r0, [r0, #16]
.LVL5:
.LBE27:
.LBE26:
	.loc 2 125 0
	ldr	r2, [r4, #4]
.LVL6:
.LBB29:
.LBB28:
	.loc 2 105 0
	subs	r3, r3, r0
.LBE28:
.LBE29:
.LBE25:
.LBE24:
	.loc 1 72 0
	movs	r0, #0
	.loc 1 71 0
	cmp	r3, r2
	blt	.L5
.LVL7:
.L2:
	.loc 1 79 0
	@ sp needed
.LVL8:
	pop	{r4, pc}
.LVL9:
.L5:
	.loc 1 74 0
	subs	r2, r2, #1
.LVL10:
	ldr	r3, [r4, #12]
	ands	r2, r3
	ldr	r3, [r4, #8]
	muls	r2, r3
	ldr	r3, [r4]
	adds	r0, r3, r2
	.loc 1 75 0
	ldr	r2, [r4, #8]
	bl	memcpy
.LVL11:
	.loc 1 76 0
	ldr	r3, [r4, #12]
	adds	r3, r3, #1
	str	r3, [r4, #12]
	.loc 1 78 0
	movs	r0, #1
	b	.L2
	.cfi_endproc
.LFE7:
	.size	RingBuffer_Insert, .-RingBuffer_Insert
	.section	.text.RingBuffer_InsertMult,"ax",%progbits
	.align	1
	.global	RingBuffer_InsertMult
	.syntax unified
	.code	16
	.thumb_func
	.fpu softvfp
	.type	RingBuffer_InsertMult, %function
RingBuffer_InsertMult:
.LFB8:
	.loc 1 83 0
	.cfi_startproc
	@ args = 0, pretend = 0, frame = 0
	@ frame_needed = 0, uses_anonymous_args = 0
.LVL12:
	push	{r3, r4, r5, r6, r7, lr}
	.cfi_def_cfa_offset 24
	.cfi_offset 3, -24
	.cfi_offset 4, -20
	.cfi_offset 5, -16
	.cfi_offset 6, -12
	.cfi_offset 7, -8
	.cfi_offset 14, -4
	movs	r4, r0
	movs	r6, r1
.LVL13:
.LBB30:
.LBB31:
.LBB32:
.LBB33:
	.loc 2 105 0
	ldr	r3, [r0, #12]
	ldr	r1, [r0, #16]
.LVL14:
.LBE33:
.LBE32:
	.loc 2 125 0
	ldr	r7, [r0, #4]
.LVL15:
.LBB35:
.LBB34:
	.loc 2 105 0
	subs	r3, r3, r1
.LBE34:
.LBE35:
.LBE31:
.LBE30:
	.loc 1 89 0
	movs	r0, #0
.LVL16:
	.loc 1 88 0
	cmp	r3, r7
	bge	.L6
.LVL17:
.LBB36:
.LBB37:
.LBB38:
.LBB39:
	.loc 2 105 0
	ldr	r3, [r4, #12]
	ldr	r1, [r4, #16]
.LVL18:
	subs	r3, r3, r1
.LBE39:
.LBE38:
	.loc 2 115 0
	subs	r3, r7, r3
.LVL19:
.LBE37:
.LBE36:
	.loc 1 93 0
	subs	r1, r7, #1
	ldr	r0, [r4, #12]
	ands	r1, r0
	adds	r0, r3, r1
	.loc 1 92 0
	movs	r5, r3
	.loc 1 93 0
	cmp	r0, r7
	bcc	.L8
	.loc 1 94 0
	subs	r5, r7, r1
.LVL20:
.L8:
	.loc 1 84 0
	ldr	r0, [r4]
	.loc 1 95 0
	subs	r3, r3, r5
.LVL21:
	.loc 1 97 0
	cmp	r5, r2
	ble	.L9
	movs	r5, r2
.LVL22:
.L9:
	.loc 1 98 0
	subs	r7, r2, r5
.LVL23:
	.loc 1 100 0
	cmp	r7, r3
	ble	.L10
	movs	r7, r3
.LVL24:
.L10:
	.loc 1 104 0
	ldr	r2, [r4, #8]
.LVL25:
	muls	r1, r2
.LVL26:
	adds	r0, r0, r1
.LVL27:
	.loc 1 105 0
	muls	r2, r5
	movs	r1, r6
	bl	memcpy
.LVL28:
	.loc 1 106 0
	ldr	r3, [r4, #12]
	adds	r0, r5, r3
	str	r0, [r4, #12]
	.loc 1 109 0
	ldr	r1, [r4, #8]
.LVL29:
	ldr	r3, [r4, #4]
	subs	r3, r3, #1
	ands	r0, r3
.LVL30:
	muls	r0, r1
	ldr	r3, [r4]
	mov	ip, r3
	add	r0, r0, ip
	.loc 1 111 0
	movs	r2, r7
	muls	r2, r1
	.loc 1 110 0
	muls	r1, r5
.LVL31:
	adds	r1, r6, r1
.LVL32:
	.loc 1 111 0
	bl	memcpy
.LVL33:
	.loc 1 112 0
	ldr	r3, [r4, #12]
	adds	r3, r3, r7
	str	r3, [r4, #12]
	.loc 1 114 0
	adds	r0, r5, r7
.LVL34:
.L6:
	.loc 1 115 0
	@ sp needed
.LVL35:
	pop	{r3, r4, r5, r6, r7, pc}
	.cfi_endproc
.LFE8:
	.size	RingBuffer_InsertMult, .-RingBuffer_InsertMult
	.section	.text.RingBuffer_Pop,"ax",%progbits
	.align	1
	.global	RingBuffer_Pop
	.syntax unified
	.code	16
	.thumb_func
	.fpu softvfp
	.type	RingBuffer_Pop, %function
RingBuffer_Pop:
.LFB9:
	.loc 1 119 0
	.cfi_startproc
	@ args = 0, pretend = 0, frame = 0
	@ frame_needed = 0, uses_anonymous_args = 0
.LVL36:
	push	{r4, lr}
	.cfi_def_cfa_offset 8
	.cfi_offset 4, -8
	.cfi_offset 14, -4
	movs	r4, r0
	movs	r3, r1
.LVL37:
.LBB40:
.LBB41:
	.loc 2 135 0
	ldr	r1, [r0, #12]
.LVL38:
	ldr	r2, [r0, #16]
.LVL39:
.LBE41:
.LBE40:
	.loc 1 124 0
	movs	r0, #0
.LVL40:
	.loc 1 123 0
	cmp	r1, r2
	beq	.L13
.LVL41:
	.loc 1 126 0
	ldr	r2, [r4, #4]
	subs	r1, r2, #1
	ldr	r2, [r4, #16]
	ands	r1, r2
	ldr	r2, [r4, #8]
	muls	r1, r2
	ldr	r2, [r4]
	mov	ip, r2
	add	r1, r1, ip
	.loc 1 127 0
	ldr	r2, [r4, #8]
	movs	r0, r3
	bl	memcpy
.LVL42:
	.loc 1 128 0
	ldr	r3, [r4, #16]
	adds	r3, r3, #1
	str	r3, [r4, #16]
	.loc 1 130 0
	movs	r0, #1
.L13:
	.loc 1 131 0
	@ sp needed
.LVL43:
	pop	{r4, pc}
	.cfi_endproc
.LFE9:
	.size	RingBuffer_Pop, .-RingBuffer_Pop
	.section	.text.RingBuffer_PopMult,"ax",%progbits
	.align	1
	.global	RingBuffer_PopMult
	.syntax unified
	.code	16
	.thumb_func
	.fpu softvfp
	.type	RingBuffer_PopMult, %function
RingBuffer_PopMult:
.LFB10:
	.loc 1 135 0
	.cfi_startproc
	@ args = 0, pretend = 0, frame = 0
	@ frame_needed = 0, uses_anonymous_args = 0
.LVL44:
	push	{r3, r4, r5, r6, r7, lr}
	.cfi_def_cfa_offset 24
	.cfi_offset 3, -24
	.cfi_offset 4, -20
	.cfi_offset 5, -16
	.cfi_offset 6, -12
	.cfi_offset 7, -8
	.cfi_offset 14, -4
	movs	r4, r0
	movs	r7, r1
.LVL45:
.LBB42:
.LBB43:
	.loc 2 135 0
	ldr	r1, [r0, #12]
.LVL46:
	ldr	r3, [r0, #16]
.LVL47:
.LBE43:
.LBE42:
	.loc 1 140 0
	cmp	r1, r3
	beq	.L21
.LVL48:
.LBB44:
.LBB45:
	.loc 2 105 0
	ldr	r3, [r0, #12]
	ldr	r1, [r0, #16]
	subs	r3, r3, r1
.LVL49:
.LBE45:
.LBE44:
	.loc 1 145 0
	ldr	r0, [r0, #4]
.LVL50:
	subs	r1, r0, #1
	ldr	r5, [r4, #16]
	ands	r1, r5
	adds	r6, r1, r3
	.loc 1 144 0
	movs	r5, r3
	.loc 1 145 0
	cmp	r6, r0
	bcc	.L18
	.loc 1 146 0
	subs	r5, r0, r1
.LVL51:
.L18:
	.loc 1 136 0
	ldr	r0, [r4]
	.loc 1 147 0
	subs	r3, r3, r5
.LVL52:
	.loc 1 149 0
	cmp	r5, r2
	ble	.L19
	movs	r5, r2
.LVL53:
.L19:
	.loc 1 150 0
	subs	r6, r2, r5
.LVL54:
	.loc 1 152 0
	cmp	r6, r3
	ble	.L20
	movs	r6, r3
.LVL55:
.L20:
	.loc 1 156 0
	ldr	r3, [r4, #8]
.LVL56:
	.loc 1 157 0
	movs	r2, r5
.LVL57:
	muls	r2, r3
	.loc 1 156 0
	muls	r1, r3
.LVL58:
	adds	r1, r0, r1
.LVL59:
	.loc 1 157 0
	movs	r0, r7
	bl	memcpy
.LVL60:
	.loc 1 158 0
	ldr	r3, [r4, #16]
	adds	r3, r5, r3
	str	r3, [r4, #16]
	.loc 1 161 0
	ldr	r1, [r4, #8]
.LVL61:
	.loc 1 162 0
	movs	r0, r5
	muls	r0, r1
	adds	r0, r7, r0
.LVL62:
	.loc 1 163 0
	movs	r2, r6
	muls	r2, r1
	.loc 1 161 0
	ldr	r7, [r4, #4]
	subs	r7, r7, #1
	ands	r3, r7
.LVL63:
	muls	r1, r3
.LVL64:
	ldr	r3, [r4]
	mov	ip, r3
	add	r1, r1, ip
	.loc 1 163 0
	bl	memcpy
.LVL65:
	.loc 1 164 0
	ldr	r3, [r4, #16]
	adds	r3, r3, r6
	str	r3, [r4, #16]
	.loc 1 166 0
	adds	r0, r5, r6
.LVL66:
.L16:
	.loc 1 167 0
	@ sp needed
.LVL67:
	pop	{r3, r4, r5, r6, r7, pc}
.LVL68:
.L21:
	.loc 1 141 0
	movs	r0, #0
.LVL69:
	b	.L16
	.cfi_endproc
.LFE10:
	.size	RingBuffer_PopMult, .-RingBuffer_PopMult
	.text
.Letext0:
	.file 3 "/Developer/arm/gcc-arm-none-eabi/arm-none-eabi/include/machine/_default_types.h"
	.file 4 "/Developer/arm/gcc-arm-none-eabi/arm-none-eabi/include/sys/lock.h"
	.file 5 "/Developer/arm/gcc-arm-none-eabi/arm-none-eabi/include/sys/_types.h"
	.file 6 "/Developer/arm/gcc-arm-none-eabi/lib/gcc/arm-none-eabi/7.2.1/include/stddef.h"
	.file 7 "/Developer/arm/gcc-arm-none-eabi/arm-none-eabi/include/sys/reent.h"
	.file 8 "/Developer/arm/gcc-arm-none-eabi/arm-none-eabi/include/sys/_stdint.h"
	.file 9 "<built-in>"