	.cpu cortex-m0
	.eabi_attribute 20, 1
	.eabi_attribute 21, 1
	.eabi_attribute 23, 3
	.eabi_attribute 24, 1
	.eabi_attribute 25, 1
	.eabi_attribute 26, 1
	.eabi_attribute 30, 1
	.eabi_attribute 34, 0
	.eabi_attribute 18, 4
	.file	"ssp_11xx.c"
	.text
.Ltext0:
	.cfi_sections	.debug_frame
	.section	.text.SSP_Read2BFifo,"ax",%progbits
	.align	1
	.syntax unified
	.code	16
	.thumb_func
	.fpu softvfp
	.type	SSP_Read2BFifo, %function
SSP_Read2BFifo:
.LFB200:
	.file 1 "src/ssp_11xx.c"
	.loc 1 74 0
	.cfi_startproc
	@ args = 0, pretend = 0, frame = 0
	@ frame_needed = 0, uses_anonymous_args = 0
.LVL0:
	push	{r4, r5, lr}
	.cfi_def_cfa_offset 12
	.cfi_offset 4, -12
	.cfi_offset 5, -8
	.cfi_offset 14, -4
.LVL1:
.LBB148:
.LBB149:
	.file 2 "./inc/ssp_11xx.h"
	.loc 2 284 0
	ldr	r3, [r0, #12]
.LVL2:
.LBE149:
.LBE148:
	.loc 1 77 0
	lsls	r3, r3, #29
	bpl	.L1
	.loc 1 78 0
	ldr	r3, [r1, #12]
	.loc 1 77 0
	ldr	r2, [r1, #16]
	cmp	r3, r2
	bcs	.L1
.LBB152:
.LBB150:
	.loc 2 284 0
	movs	r5, #4
	b	.L4
.L3:
.LBE150:
.LBE152:
	.loc 1 84 0
	ldr	r3, [r1, #12]
	adds	r3, r3, #2
	str	r3, [r1, #12]
.LVL3:
.LBB153:
.LBB151:
	.loc 2 284 0
	ldr	r2, [r0, #12]
.LVL4:
.LBE151:
.LBE153:
	.loc 1 77 0
	tst	r5, r2
	beq	.L1
	.loc 1 77 0 is_stmt 0 discriminator 1
	ldr	r2, [r1, #16]
	cmp	r3, r2
	bcs	.L1
.L4:
.LVL5:
.LBB154:
.LBB155:
	.loc 2 366 0 is_stmt 1
	ldr	r4, [r0, #8]
.LVL6:
.LBE155:
.LBE154:
	.loc 1 80 0
	ldr	r2, [r1, #8]
	cmp	r2, #0
	beq	.L3
.LBB157:
.LBB156:
	.loc 2 366 0
	strh	r4, [r2, r3]
	b	.L3
.L1:
.LBE156:
.LBE157:
	.loc 1 86 0
	@ sp needed
	pop	{r4, r5, pc}
	.cfi_endproc
.LFE200:
	.size	SSP_Read2BFifo, .-SSP_Read2BFifo
	.section	.text.SSP_Read1BFifo,"ax",%progbits
	.align	1
	.syntax unified
	.code	16
	.thumb_func
	.fpu softvfp
	.type	SSP_Read1BFifo, %function
SSP_Read1BFifo:
.LFB201:
	.loc 1 90 0
	.cfi_startproc
	@ args = 0, pretend = 0, frame = 0
	@ frame_needed = 0, uses_anonymous_args = 0
.LVL7:
	push	{r4, r5, lr}
	.cfi_def_cfa_offset 12
	.cfi_offset 4, -12
	.cfi_offset 5, -8
	.cfi_offset 14, -4
.LVL8:
.LBB158:
.LBB159:
	.loc 2 284 0
	ldr	r3, [r0, #12]
.LVL9:
.LBE159:
.LBE158:
	.loc 1 93 0
	lsls	r3, r3, #29
	bpl	.L6
	.loc 1 94 0
	ldr	r3, [r1, #12]
	.loc 1 93 0
	ldr	r2, [r1, #16]
	cmp	r3, r2
	bcs	.L6
.LBB162:
.LBB160:
	.loc 2 284 0
	movs	r5, #4
	b	.L9
.L8:
.LBE160:
.LBE162:
	.loc 1 100 0
	ldr	r3, [r1, #12]
	adds	r3, r3, #1
	str	r3, [r1, #12]
.LVL10:
.LBB163:
.LBB161:
	.loc 2 284 0
	ldr	r2, [r0, #12]
.LVL11:
.LBE161:
.LBE163:
	.loc 1 93 0
	tst	r5, r2
	beq	.L6
	.loc 1 93 0 is_stmt 0 discriminator 1
	ldr	r2, [r1, #16]
	cmp	r3, r2
	bcs	.L6
.L9:
.LVL12:
.LBB164:
.LBB165:
	.loc 2 366 0 is_stmt 1
	ldr	r4, [r0, #8]
.LVL13:
.LBE165:
.LBE164:
	.loc 1 96 0
	ldr	r2, [r1, #8]
	cmp	r2, #0
	beq	.L8
	.loc 1 97 0
	strb	r4, [r2, r3]
	b	.L8
.L6:
	.loc 1 102 0
	@ sp needed
	pop	{r4, r5, pc}
	.cfi_endproc
.LFE201:
	.size	SSP_Read1BFifo, .-SSP_Read1BFifo
	.section	.text.Chip_SSP_SetClockRate,"ax",%progbits
	.align	1
	.global	Chip_SSP_SetClockRate
	.syntax unified
	.code	16
	.thumb_func
	.fpu softvfp
	.type	Chip_SSP_SetClockRate, %function
Chip_SSP_SetClockRate:
.LFB206:
	.loc 1 172 0
	.cfi_startproc
	@ args = 0, pretend = 0, frame = 0
	@ frame_needed = 0, uses_anonymous_args = 0
.LVL14:
	push	{r4, lr}
	.cfi_def_cfa_offset 8
	.cfi_offset 4, -8
	.cfi_offset 14, -4
	.loc 1 174 0
	ldr	r3, [r0]
.LVL15:
	.loc 1 175 0
	lsls	r1, r1, #24
.LVL16:
	lsrs	r1, r1, #16
	.loc 1 174 0
	ldr	r4, .L12
	ands	r3, r4
.LVL17:
	.loc 1 175 0
	orrs	r1, r3
	str	r1, [r0]
	.loc 1 176 0
	str	r2, [r0, #16]
	.loc 1 177 0
	@ sp needed
	pop	{r4, pc}
.L13:
	.align	2
.L12:
	.word	-65281
	.cfi_endproc
.LFE206:
	.size	Chip_SSP_SetClockRate, .-Chip_SSP_SetClockRate
	.section	.text.Chip_SSP_RWFrames_Blocking,"ax",%progbits
	.align	1
	.global	Chip_SSP_RWFrames_Blocking
	.syntax unified
	.code	16
	.thumb_func
	.fpu softvfp
	.type	Chip_SSP_RWFrames_Blocking, %function
Chip_SSP_RWFrames_Blocking:
.LFB207:
	.loc 1 181 0
	.cfi_startproc
	@ args = 0, pretend = 0, frame = 0
	@ frame_needed = 0, uses_anonymous_args = 0
.LVL18:
	push	{r4, r5, r6, r7, lr}
	.cfi_def_cfa_offset 20
	.cfi_offset 4, -20
	.cfi_offset 5, -16
	.cfi_offset 6, -12
	.cfi_offset 7, -8
	.cfi_offset 14, -4
	mov	lr, r8
	push	{lr}
	.cfi_def_cfa_offset 24
	.cfi_offset 8, -24
	movs	r4, r0
	movs	r5, r1
.LVL19:
.LBB194:
.LBB195:
	.loc 2 284 0
	ldr	r3, [r0, #12]
.LVL20:
.LBE195:
.LBE194:
	.loc 1 183 0
	lsls	r3, r3, #29
	bpl	.L15
.LBB198:
.LBB196:
	.loc 2 284 0
	movs	r2, #4
.L16:
.LVL21:
.LBE196:
.LBE198:
.LBB199:
.LBB200:
	.loc 2 366 0
	ldr	r3, [r4, #8]
.LVL22:
.LBE200:
.LBE199:
.LBB201:
.LBB197:
	.loc 2 284 0
	ldr	r3, [r4, #12]
.LVL23:
.LBE197:
.LBE201:
	.loc 1 183 0
	tst	r2, r3
	bne	.L16
.LVL24:
.L15:
.LBB202:
.LBB203:
	.loc 2 336 0
	movs	r3, #3
	str	r3, [r4, #32]
.LVL25:
.LBE203:
.LBE202:
.LBB204:
.LBB205:
	.loc 2 322 0
	ldr	r2, [r4]
.LVL26:
.LBE205:
.LBE204:
	.loc 1 190 0
	adds	r3, r3, #12
	ands	r3, r2
	cmp	r3, #7
	bls	.L39
.LBB206:
.LBB207:
	.loc 2 284 0
	movs	r7, #2
.LBE207:
.LBE206:
.LBB210:
.LBB211:
.LBB212:
.LBB213:
	.loc 2 377 0
	ldr	r3, .L40
	mov	r8, r3
.LBE213:
.LBE212:
.LBE211:
.LBE210:
.LBB219:
.LBB220:
	.loc 2 311 0
	movs	r6, #1
	b	.L17
.L39:
.LBE220:
.LBE219:
.LBB222:
.LBB223:
	.loc 2 284 0
	movs	r7, #2
.LBE223:
.LBE222:
.LBB226:
.LBB227:
.LBB228:
.LBB229:
	.loc 2 377 0
	movs	r3, #255
	mov	r8, r3
.LBE229:
.LBE228:
.LBE227:
.LBE226:
.LBB235:
.LBB236:
	.loc 2 311 0
	movs	r6, #1
	b	.L18
.LVL27:
.L23:
.LBE236:
.LBE235:
.LBB238:
.LBB208:
	.loc 2 284 0
	ldr	r2, [r4, #12]
.LVL28:
.LBE208:
.LBE238:
	.loc 1 193 0
	tst	r7, r2
	beq	.L19
	.loc 1 193 0 is_stmt 0 discriminator 1
	ldr	r2, [r5, #4]
	cmp	r2, r3
	bcc	.L32
.L19:
.LVL29:
.LBB239:
.LBB221:
	.loc 2 311 0 is_stmt 1
	ldr	r3, [r4, #24]
.LVL30:
.LBE221:
.LBE239:
	.loc 1 198 0
	tst	r6, r3
	bne	.L34
	.loc 1 203 0
	movs	r1, r5
	movs	r0, r4
	bl	SSP_Read2BFifo
.LVL31:
.L17:
	.loc 1 191 0
	ldr	r3, [r5, #16]
	ldr	r2, [r5, #12]
	cmp	r2, r3
	bcc	.L23
	.loc 1 191 0 is_stmt 0 discriminator 1
	ldr	r2, [r5, #4]
	cmp	r3, r2
	bls	.L25
.LVL32:
.LBB240:
.LBB209:
	.loc 2 284 0 is_stmt 1
	ldr	r3, [r4, #12]
.LVL33:
.LBE209:
.LBE240:
	.loc 1 193 0
	tst	r7, r3
	beq	.L19
.L32:
.LVL34:
.LBB241:
.LBB218:
	.loc 1 48 0
	ldr	r3, [r5]
	cmp	r3, #0
	beq	.L20
.LVL35:
.LBB215:
.LBB216:
	.loc 2 377 0
	ldrh	r3, [r3, r2]
.LVL36:
	str	r3, [r4, #8]
.LVL37:
.L21:
.LBE216:
.LBE215:
	.loc 1 56 0
	ldr	r3, [r5, #4]
	adds	r3, r3, #2
	str	r3, [r5, #4]
	b	.L19
.L20:
.LVL38:
.LBB217:
.LBB214:
	.loc 2 377 0
	mov	r3, r8
	str	r3, [r4, #8]
	b	.L21
.LVL39:
.L29:
.LBE214:
.LBE217:
.LBE218:
.LBE241:
.LBB242:
.LBB224:
	.loc 2 284 0
	ldr	r2, [r4, #12]
.LVL40:
.LBE224:
.LBE242:
	.loc 1 209 0
	tst	r7, r2
	beq	.L26
	.loc 1 209 0 is_stmt 0 discriminator 1
	ldr	r2, [r5, #4]
	cmp	r2, r3
	bcc	.L33
.L26:
.LVL41:
.LBB243:
.LBB237:
	.loc 2 311 0 is_stmt 1
	ldr	r3, [r4, #24]
.LVL42:
.LBE237:
.LBE243:
	.loc 1 214 0
	tst	r6, r3
	bne	.L35
	.loc 1 219 0
	movs	r1, r5
	movs	r0, r4
	bl	SSP_Read1BFifo
.LVL43:
.L18:
	.loc 1 207 0
	ldr	r3, [r5, #16]
	ldr	r2, [r5, #12]
	cmp	r2, r3
	bcc	.L29
	.loc 1 207 0 is_stmt 0 discriminator 1
	ldr	r2, [r5, #4]
	cmp	r3, r2
	bls	.L25
.LVL44:
.LBB244:
.LBB225:
	.loc 2 284 0 is_stmt 1
	ldr	r3, [r4, #12]
.LVL45:
.LBE225:
.LBE244:
	.loc 1 209 0
	tst	r7, r3
	beq	.L26
.L33:
.LVL46:
.LBB245:
.LBB234:
	.loc 1 62 0
	ldr	r3, [r5]
	cmp	r3, #0
	beq	.L27
.LVL47:
.LBB231:
.LBB232:
	.loc 2 377 0
	ldrb	r3, [r3, r2]
.LVL48:
	str	r3, [r4, #8]
.LVL49:
.L28:
.LBE232:
.LBE231:
	.loc 1 69 0
	ldr	r3, [r5, #4]
	adds	r3, r3, #1
	str	r3, [r5, #4]
	b	.L26
.L27:
.LVL50:
.LBB233:
.LBB230:
	.loc 2 377 0
	mov	r3, r8
	str	r3, [r4, #8]
	b	.L28
.LVL51:
.L25:
.LBE230:
.LBE233:
.LBE234:
.LBE245:
	.loc 1 222 0
	ldr	r3, [r5]
	cmp	r3, #0
	beq	.L31
	.loc 1 223 0
	ldr	r0, [r5, #4]
	b	.L14
.L31:
	.loc 1 225 0
	ldr	r3, [r5, #8]
	cmp	r3, #0
	beq	.L36
	.loc 1 226 0
	ldr	r0, [r5, #12]
	b	.L14
.L34:
	.loc 1 199 0
	movs	r0, #0
.L14:
	.loc 1 230 0
	@ sp needed
.LVL52:
.LVL53:
	pop	{r2}
	mov	r8, r2
	pop	{r4, r5, r6, r7, pc}
.LVL54:
.L35:
	.loc 1 215 0
	movs	r0, #0
	b	.L14
.L36:
	.loc 1 229 0
	movs	r0, #0
	b	.L14
.L41:
	.align	2
.L40:
	.word	65535
	.cfi_endproc
.LFE207:
	.size	Chip_SSP_RWFrames_Blocking, .-Chip_SSP_RWFrames_Blocking
	.section	.text.Chip_SSP_WriteFrames_Blocking,"ax",%progbits
	.align	1
	.global	Chip_SSP_WriteFrames_Blocking
	.syntax unified
	.code	16
	.thumb_func
	.fpu softvfp
	.type	Chip_SSP_WriteFrames_Blocking, %function
Chip_SSP_WriteFrames_Blocking:
.LFB208:
	.loc 1 234 0
	.cfi_startproc
	@ args = 0, pretend = 0, frame = 0
	@ frame_needed = 0, uses_anonymous_args = 0
.LVL55:
	push	{r4, r5, r6, r7, lr}
	.cfi_def_cfa_offset 20
	.cfi_offset 4, -20
	.cfi_offset 5, -16
	.cfi_offset 6, -12
	.cfi_offset 7, -8
	.cfi_offset 14, -4
	mov	lr, r9
	mov	r7, r8
	push	{r7, lr}
	.cfi_def_cfa_offset 28
	.cfi_offset 8, -28
	.cfi_offset 9, -24
	movs	r3, r0
	mov	r8, r1
.LVL56:
.LBB246:
.LBB247:
	.loc 2 284 0
	ldr	r0, [r0, #12]
.LVL57:
.LBE247:
.LBE246:
	.loc 1 238 0
	lsls	r1, r0, #29
	bpl	.L43
.LVL58:
.LBB250:
.LBB248:
	.loc 2 284 0
	movs	r4, #4
.L44:
.LVL59:
.LBE248:
.LBE250:
.LBB251:
.LBB252:
	.loc 2 366 0
	ldr	r0, [r3, #8]
.LVL60:
.LBE252:
.LBE251:
.LBB253:
.LBB249:
	.loc 2 284 0
	ldr	r0, [r3, #12]
.LVL61:
.LBE249:
.LBE253:
	.loc 1 238 0
	tst	r4, r0
	bne	.L44
.LVL62:
.L43:
.LBB254:
.LBB255:
	.loc 2 336 0
	movs	r0, #3
	str	r0, [r3, #32]
.LVL63:
.LBE255:
.LBE254:
.LBB256:
.LBB257:
	.loc 2 322 0
	ldr	r4, [r3]
.LVL64:
.LBE257:
.LBE256:
	.loc 1 245 0
	adds	r0, r0, #12
	ands	r0, r4
	cmp	r0, #7
	bhi	.L60
	.loc 1 235 0
	movs	r4, #0
	movs	r0, #0
.LBB258:
.LBB259:
.LBB260:
	.loc 2 284 0
	movs	r1, #2
	mov	ip, r1
.LBE260:
.LBE259:
.LBB263:
.LBB264:
	.loc 2 311 0
	movs	r7, #1
.LBE264:
.LBE263:
.LBB266:
.LBB267:
	.loc 2 284 0
	movs	r6, #4
.LVL65:
.L46:
.LBE267:
.LBE266:
	.loc 1 275 0
	cmp	r0, r2
	bcc	.L54
	.loc 1 275 0 is_stmt 0 discriminator 1
	cmp	r4, r2
	bcs	.L42
.LVL66:
.LBB270:
.LBB261:
	.loc 2 284 0 is_stmt 1
	ldr	r5, [r3, #12]
.LVL67:
.L59:
.LBE261:
.LBE270:
.LBB271:
.LBB265:
	.loc 2 311 0
	ldr	r5, [r3, #24]
.LVL68:
.LBE265:
.LBE271:
	.loc 1 284 0
	tst	r7, r5
	bne	.L62
.LVL69:
.LBB272:
.LBB268:
	.loc 2 284 0
	ldr	r5, [r3, #12]
.LVL70:
.LBE268:
.LBE272:
	.loc 1 289 0
	tst	r6, r5
	beq	.L46
	cmp	r4, r2
	bcs	.L46
.L53:
.LVL71:
.LBB273:
.LBB274:
	.loc 2 366 0
	ldr	r5, [r3, #8]
.LVL72:
.LBE274:
.LBE273:
	.loc 1 291 0
	adds	r4, r4, #1
.LVL73:
.LBB275:
.LBB269:
	.loc 2 284 0
	ldr	r5, [r3, #12]
.LVL74:
.LBE269:
.LBE275:
	.loc 1 289 0
	tst	r6, r5
	beq	.L46
	.loc 1 289 0 is_stmt 0 discriminator 1
	cmp	r2, r4
	bne	.L53
	b	.L46
.LVL75:
.L66:
.LBE258:
.LBB279:
.LBB280:
.LBB281:
	.loc 2 377 0 is_stmt 1
	mov	r1, r8
	ldrh	r5, [r1]
	str	r5, [r3, #8]
.LVL76:
.LBE281:
.LBE280:
	.loc 1 254 0
	movs	r1, #2
	mov	r9, r1
	add	r8, r8, r9
.LVL77:
	.loc 1 255 0
	adds	r0, r0, #2
.LVL78:
	b	.L57
.LVL79:
.L60:
.LBE279:
	.loc 1 235 0
	movs	r4, #0
	movs	r0, #0
.LBB300:
.LBB282:
.LBB283:
	.loc 2 284 0
	movs	r1, #2
	mov	ip, r1
.LBE283:
.LBE282:
.LBB286:
.LBB287:
	.loc 2 311 0
	movs	r7, #1
.LBE287:
.LBE286:
.LBB289:
.LBB290:
	.loc 2 284 0
	movs	r6, #4
	b	.L45
.LVL80:
.L61:
.LBE290:
.LBE289:
	.loc 1 260 0
	movs	r0, #0
.LVL81:
.L42:
.LBE300:
	.loc 1 298 0
	@ sp needed
.LVL82:
	pop	{r2, r3}
	mov	r8, r2
	mov	r9, r3
	pop	{r4, r5, r6, r7, pc}
.LVL83:
.L62:
.LBB301:
	.loc 1 285 0
	movs	r0, #0
.LVL84:
	b	.L42
.LVL85:
.L50:
.LBE301:
.LBB302:
.LBB293:
.LBB284:
	.loc 2 284 0
	ldr	r5, [r3, #12]
.LVL86:
.LBE284:
.LBE293:
	.loc 1 252 0
	mov	r1, ip
	tst	r1, r5
	bne	.L66
.L57:
.LVL87:
.LBB294:
.LBB288:
	.loc 2 311 0
	ldr	r5, [r3, #24]
.LVL88:
.LBE288:
.LBE294:
	.loc 1 259 0
	tst	r7, r5
	bne	.L61
.LVL89:
.LBB295:
.LBB291:
	.loc 2 284 0
	ldr	r5, [r3, #12]
.LVL90:
.LBE291:
.LBE295:
	.loc 1 264 0
	tst	r6, r5
	beq	.L45
.L49:
.LVL91:
.LBB296:
.LBB297:
	.loc 2 366 0
	ldr	r5, [r3, #8]
.LVL92:
.LBE297:
.LBE296:
	.loc 1 266 0
	adds	r4, r4, #2
.LVL93:
.LBB298:
.LBB292:
	.loc 2 284 0
	ldr	r5, [r3, #12]
.LVL94:
.LBE292:
.LBE298:
	.loc 1 264 0
	tst	r6, r5
	bne	.L49
.LVL95:
.L45:
	.loc 1 250 0
	cmp	r0, r2
	bcc	.L50
	.loc 1 250 0 is_stmt 0 discriminator 1
	cmp	r4, r2
	bcs	.L42
.LVL96:
.LBB299:
.LBB285:
	.loc 2 284 0 is_stmt 1
	ldr	r5, [r3, #12]
.LVL97:
	b	.L57
.LVL98:
.L54:
.LBE285:
.LBE299:
.LBE302:
.LBB303:
.LBB276:
.LBB262:
	ldr	r5, [r3, #12]
.LVL99:
.LBE262:
.LBE276:
	.loc 1 277 0
	mov	r1, ip
	tst	r1, r5
	beq	.L59
.LVL100:
.LBB277:
.LBB278:
	.loc 2 377 0
	mov	r1, r8
	ldrb	r5, [r1]
	str	r5, [r3, #8]
.LVL101:
.LBE278:
.LBE277:
	.loc 1 279 0
	movs	r1, #1
	mov	r9, r1
	add	r8, r8, r9
.LVL102:
	.loc 1 280 0
	adds	r0, r0, #1
.LVL103:
	b	.L59
.LBE303:
	.cfi_endproc
.LFE208:
	.size	Chip_SSP_WriteFrames_Blocking, .-Chip_SSP_WriteFrames_Blocking
	.section	.text.Chip_SSP_ReadFrames_Blocking,"ax",%progbits
	.align	1
	.global	Chip_SSP_ReadFrames_Blocking
	.syntax unified
	.code	16
	.thumb_func
	.fpu softvfp
	.type	Chip_SSP_ReadFrames_Blocking, %function
Chip_SSP_ReadFrames_Blocking:
.LFB209:
	.loc 1 302 0
	.cfi_startproc
	@ args = 0, pretend = 0, frame = 0
	@ frame_needed = 0, uses_anonymous_args = 0
.LVL104:
	push	{r4, r5, r6, r7, lr}
	.cfi_def_cfa_offset 20
	.cfi_offset 4, -20
	.cfi_offset 5, -16
	.cfi_offset 6, -12
	.cfi_offset 7, -8
	.cfi_offset 14, -4
	mov	lr, fp
	mov	r7, r10
	mov	r6, r9
	mov	r5, r8
	push	{r5, r6, r7, lr}
	.cfi_def_cfa_offset 36
	.cfi_offset 8, -36
	.cfi_offset 9, -32
	.cfi_offset 10, -28
	.cfi_offset 11, -24
	movs	r3, r0
.LVL105:
.LBB304:
.LBB305:
	.loc 2 284 0
	ldr	r0, [r0, #12]
.LVL106:
.LBE305:
.LBE304:
	.loc 1 306 0
	lsls	r0, r0, #29
	bpl	.L68
.LBB308:
.LBB306:
	.loc 2 284 0
	movs	r4, #4
.L69:
.LVL107:
.LBE306:
.LBE308:
.LBB309:
.LBB310:
	.loc 2 366 0
	ldr	r0, [r3, #8]
.LVL108:
.LBE310:
.LBE309:
.LBB311:
.LBB307:
	.loc 2 284 0
	ldr	r0, [r3, #12]
.LVL109:
.LBE307:
.LBE311:
	.loc 1 306 0
	tst	r4, r0
	bne	.L69
.LVL110:
.L68:
.LBB312:
.LBB313:
	.loc 2 336 0
	movs	r0, #3
	str	r0, [r3, #32]
.LVL111:
.LBE313:
.LBE312:
.LBB314:
.LBB315:
	.loc 2 322 0
	ldr	r4, [r3]
.LVL112:
.LBE315:
.LBE314:
	.loc 1 313 0
	adds	r0, r0, #12
	ands	r0, r4
	cmp	r0, #7
	bhi	.L85
	.loc 1 303 0
	movs	r0, #0
	mov	ip, r0
.LBB316:
.LBB317:
.LBB318:
	.loc 2 284 0
	movs	r4, #2
	mov	r9, r4
.LBE318:
.LBE317:
.LBB321:
.LBB322:
	.loc 2 377 0
	adds	r4, r4, #253
	mov	r10, r4
.LBE322:
.LBE321:
.LBB324:
.LBB325:
	.loc 2 311 0
	subs	r4, r4, #254
	mov	r8, r4
.LBE325:
.LBE324:
.LBB327:
.LBB328:
	.loc 2 284 0
	movs	r7, #4
	b	.L71
.L85:
.LBE328:
.LBE327:
.LBE316:
	.loc 1 303 0
	movs	r6, #0
	movs	r0, #0
.LBB339:
.LBB340:
.LBB341:
	.loc 2 284 0
	movs	r4, #2
	mov	ip, r4
.LBE341:
.LBE340:
.LBB344:
.LBB345:
	.loc 2 377 0
	ldr	r4, .L93
	mov	r8, r4
.LBE345:
.LBE344:
.LBB347:
.LBB348:
	.loc 2 311 0
	movs	r4, #1
	mov	r9, r4
.LBE348:
.LBE347:
.LBB350:
.LBB351:
	.loc 2 284 0
	movs	r5, #4
.LVL113:
.L70:
.LBE351:
.LBE350:
	.loc 1 318 0
	cmp	r6, r2
	bcc	.L75
	.loc 1 318 0 is_stmt 0 discriminator 1
	cmp	r0, r2
	bcs	.L67
.LVL114:
.LBB354:
.LBB342:
	.loc 2 284 0 is_stmt 1
	ldr	r4, [r3, #12]
.LVL115:
.L82:
.LBE342:
.LBE354:
.LBB355:
.LBB349:
	.loc 2 311 0
	ldr	r4, [r3, #24]
.LVL116:
.LBE349:
.LBE355:
	.loc 1 326 0
	mov	r7, r9
	tst	r7, r4
	bne	.L86
.LVL117:
.LBB356:
.LBB352:
	.loc 2 284 0
	ldr	r4, [r3, #12]
.LVL118:
.LBE352:
.LBE356:
	.loc 1 331 0
	tst	r5, r4
	beq	.L70
	cmp	r0, r2
	bcs	.L70
.L74:
.LVL119:
.LBB357:
.LBB358:
	.loc 2 366 0
	ldr	r4, [r3, #8]
.LVL120:
	strh	r4, [r1]
.LBE358:
.LBE357:
	.loc 1 333 0
	adds	r1, r1, #2
.LVL121:
	.loc 1 334 0
	adds	r0, r0, #2
.LVL122:
.LBB359:
.LBB353:
	.loc 2 284 0
	ldr	r4, [r3, #12]
.LVL123:
.LBE353:
.LBE359:
	.loc 1 331 0
	tst	r5, r4
	beq	.L70
	.loc 1 331 0 is_stmt 0 discriminator 1
	cmp	r2, r0
	bhi	.L74
	b	.L70
.LVL124:
.L88:
.LBE339:
.LBB362:
	.loc 1 356 0 is_stmt 1
	movs	r4, r1
.LVL125:
.L77:
	movs	r1, r4
.LVL126:
.L71:
	.loc 1 343 0
	cmp	ip, r2
	bcc	.L79
	.loc 1 343 0 is_stmt 0 discriminator 1
	cmp	r0, r2
	bcs	.L67
.LVL127:
.LBB331:
.LBB319:
	.loc 2 284 0 is_stmt 1
	ldr	r4, [r3, #12]
.LVL128:
.L84:
.LBE319:
.LBE331:
.LBB332:
.LBB326:
	.loc 2 311 0
	ldr	r4, [r3, #24]
.LVL129:
.LBE326:
.LBE332:
	.loc 1 351 0
	mov	r5, r8
	tst	r5, r4
	bne	.L87
.LVL130:
.LBB333:
.LBB329:
	.loc 2 284 0
	ldr	r4, [r3, #12]
.LVL131:
.LBE329:
.LBE333:
	.loc 1 356 0
	tst	r7, r4
	beq	.L88
	cmp	r0, r2
	bcs	.L89
	subs	r6, r2, r0
	adds	r6, r1, r6
	movs	r4, r1
	subs	r1, r0, r1
.LVL132:
.L78:
.LBB334:
.LBB335:
	.loc 2 366 0
	ldr	r5, [r3, #8]
.LVL133:
.LBE335:
.LBE334:
	.loc 1 357 0
	strb	r5, [r4]
	.loc 1 358 0
	adds	r4, r4, #1
.LVL134:
	adds	r0, r4, r1
.LVL135:
.LBB336:
.LBB330:
	.loc 2 284 0
	ldr	r5, [r3, #12]
.LVL136:
.LBE330:
.LBE336:
	.loc 1 356 0
	tst	r7, r5
	beq	.L77
	.loc 1 356 0 is_stmt 0 discriminator 1
	cmp	r4, r6
	bne	.L78
	b	.L77
.LVL137:
.L89:
	.loc 1 356 0
	movs	r4, r1
	b	.L77
.LVL138:
.L86:
.LBE362:
.LBB363:
	.loc 1 327 0 is_stmt 1
	movs	r0, #0
.LVL139:
.L67:
.LBE363:
	.loc 1 366 0
	@ sp needed
	pop	{r2, r3, r4, r5}
	mov	r8, r2
	mov	r9, r3
	mov	r10, r4
	mov	fp, r5
	pop	{r4, r5, r6, r7, pc}
.LVL140:
.L87:
.LBB364:
	.loc 1 352 0
	movs	r0, #0
.LVL141:
	b	.L67
.LVL142:
.L75:
.LBE364:
.LBB365:
.LBB360:
.LBB343:
	.loc 2 284 0
	ldr	r4, [r3, #12]
.LVL143:
.LBE343:
.LBE360:
	.loc 1 320 0
	mov	r7, ip
	tst	r7, r4
	beq	.L82
.LVL144:
.LBB361:
.LBB346:
	.loc 2 377 0
	mov	r4, r8
	str	r4, [r3, #8]
.LVL145:
.LBE346:
.LBE361:
	.loc 1 322 0
	adds	r6, r6, #2
.LVL146:
	b	.L82
.LVL147:
.L79:
.LBE365:
.LBB366:
.LBB337:
.LBB320:
	.loc 2 284 0
	ldr	r4, [r3, #12]
.LVL148:
.LBE320:
.LBE337:
	.loc 1 345 0
	mov	r5, r9
	tst	r5, r4
	beq	.L84
.LVL149:
.LBB338:
.LBB323:
	.loc 2 377 0
	mov	r4, r10
	str	r4, [r3, #8]
.LVL150:
.LBE323:
.LBE338:
	.loc 1 347 0
	movs	r4, #1
	mov	fp, r4
	add	ip, ip, fp
.LVL151:
	b	.L84
.L94:
	.align	2
.L93:
	.word	65535
.LBE366:
	.cfi_endproc
.LFE209:
	.size	Chip_SSP_ReadFrames_Blocking, .-Chip_SSP_ReadFrames_Blocking
	.section	.text.Chip_SSP_Int_FlushData,"ax",%progbits
	.align	1
	.global	Chip_SSP_Int_FlushData
	.syntax unified
	.code	16
	.thumb_func
	.fpu softvfp
	.type	Chip_SSP_Int_FlushData, %function
Chip_SSP_Int_FlushData:
.LFB210:
	.loc 1 370 0
	.cfi_startproc
	@ args = 0, pretend = 0, frame = 0
	@ frame_needed = 0, uses_anonymous_args = 0
	@ link register save eliminated.
.LVL152:
.LBB367:
.LBB368:
	.loc 2 284 0
	ldr	r3, [r0, #12]
.LVL153:
.LBE368:
.LBE367:
.LBB369:
.LBB370:
	movs	r2, #16
.LBE370:
.LBE369:
	.loc 1 371 0
	lsls	r3, r3, #27
	bmi	.L96
.L99:
.LVL154:
.LBB372:
.LBB373:
	.loc 2 284 0
	ldr	r3, [r0, #12]
.LVL155:
	movs	r2, #4
.LBE373:
.LBE372:
	.loc 1 376 0
	lsls	r3, r3, #29
	bpl	.L98
.L97:
.LVL156:
.LBB375:
.LBB376:
	.loc 2 366 0
	ldr	r3, [r0, #8]
.LVL157:
.LBE376:
.LBE375:
.LBB377:
.LBB374:
	.loc 2 284 0
	ldr	r3, [r0, #12]
.LVL158:
.LBE374:
.LBE377:
	.loc 1 376 0
	tst	r2, r3
	bne	.L97
.LVL159:
.L98:
.LBB378:
.LBB379:
	.loc 2 336 0
	movs	r3, #3
	str	r3, [r0, #32]
.LVL160:
.LBE379:
.LBE378:
	.loc 1 382 0
	@ sp needed
	bx	lr
.L96:
.LVL161:
.LBB380:
.LBB371:
	.loc 2 284 0 discriminator 1
	ldr	r3, [r0, #12]
.LVL162:
.LBE371:
.LBE380:
	.loc 1 372 0 discriminator 1
	tst	r2, r3
	bne	.L96
	b	.L99
	.cfi_endproc
.LFE210:
	.size	Chip_SSP_Int_FlushData, .-Chip_SSP_Int_FlushData
	.section	.text.Chip_SSP_Int_RWFrames8Bits,"ax",%progbits
	.align	1
	.global	Chip_SSP_Int_RWFrames8Bits
	.syntax unified
	.code	16
	.thumb_func
	.fpu softvfp
	.type	Chip_SSP_Int_RWFrames8Bits, %function
Chip_SSP_Int_RWFrames8Bits:
.LFB211:
	.loc 1 386 0
	.cfi_startproc
	@ args = 0, pretend = 0, frame = 0
	@ frame_needed = 0, uses_anonymous_args = 0
.LVL163:
	push	{r4, r5, r6, r7, lr}
	.cfi_def_cfa_offset 20
	.cfi_offset 4, -20
	.cfi_offset 5, -16
	.cfi_offset 6, -12
	.cfi_offset 7, -8
	.cfi_offset 14, -4
	mov	lr, r8
	push	{lr}
	.cfi_def_cfa_offset 24
	.cfi_offset 8, -24
	movs	r5, r0
	movs	r4, r1
.LVL164:
.LBB393:
.LBB394:
	.loc 2 311 0
	ldr	r3, [r0, #24]
.LVL165:
.LBE394:
.LBE393:
	.loc 1 389 0
	movs	r0, #0
.LVL166:
	.loc 1 388 0
	lsls	r3, r3, #31
	bmi	.L105
	.loc 1 392 0
	ldr	r3, [r1, #4]
	ldr	r2, [r1, #16]
	cmp	r3, r2
	bne	.L106
	.loc 1 392 0 is_stmt 0 discriminator 1
	ldr	r2, [r1, #12]
	cmp	r3, r2
	beq	.L111
.L106:
	.loc 1 394 0 is_stmt 1
	movs	r1, r4
.LVL167:
	movs	r0, r5
	bl	SSP_Read1BFifo
.LVL168:
.LBB395:
.LBB396:
	.loc 2 284 0
	ldr	r3, [r5, #12]
.LVL169:
.LBE396:
.LBE395:
	.loc 1 396 0
	lsls	r3, r3, #30
	bpl	.L112
	ldr	r3, [r4, #4]
	ldr	r2, [r4, #16]
	cmp	r3, r2
	beq	.L113
.LBB399:
.LBB400:
.LBB401:
.LBB402:
	.loc 2 377 0
	movs	r2, #255
	mov	r8, r2
.LBE402:
.LBE401:
.LBE400:
.LBE399:
.LBB409:
.LBB410:
	.loc 2 311 0
	movs	r6, #1
.LBE410:
.LBE409:
.LBB412:
.LBB397:
	.loc 2 284 0
	movs	r7, #2
	b	.L109
.LVL170:
.L107:
.LBE397:
.LBE412:
.LBB413:
.LBB407:
.LBB404:
.LBB403:
	.loc 2 377 0
	mov	r3, r8
	str	r3, [r5, #8]
.LVL171:
.L108:
.LBE403:
.LBE404:
	.loc 1 69 0
	ldr	r3, [r4, #4]
	adds	r3, r3, #1
	str	r3, [r4, #4]
.LVL172:
.LBE407:
.LBE413:
.LBB414:
.LBB411:
	.loc 2 311 0
	ldr	r3, [r5, #24]
.LVL173:
.LBE411:
.LBE414:
	.loc 1 401 0
	tst	r6, r3
	bne	.L114
	.loc 1 406 0
	movs	r1, r4
	movs	r0, r5
	bl	SSP_Read1BFifo
.LVL174:
.LBB415:
.LBB398:
	.loc 2 284 0
	ldr	r3, [r5, #12]
.LVL175:
.LBE398:
.LBE415:
	.loc 1 396 0
	tst	r7, r3
	beq	.L115
	.loc 1 396 0 is_stmt 0 discriminator 1
	ldr	r3, [r4, #4]
	ldr	r2, [r4, #16]
	cmp	r3, r2
	beq	.L117
.L109:
.LVL176:
.LBB416:
.LBB408:
	.loc 1 62 0 is_stmt 1
	ldr	r2, [r4]
	cmp	r2, #0
	beq	.L107
.LVL177:
.LBB405:
.LBB406:
	.loc 2 377 0
	ldrb	r3, [r2, r3]
.LVL178:
	str	r3, [r5, #8]
	b	.L108
.LVL179:
.L117:
.LBE406:
.LBE405:
.LBE408:
.LBE416:
	.loc 1 409 0
	movs	r0, #1
	b	.L105
.LVL180:
.L111:
	.loc 1 412 0
	movs	r0, #0
	b	.L105
.LVL181:
.L112:
	.loc 1 409 0
	movs	r0, #1
	b	.L105
.L113:
	movs	r0, #1
	b	.L105
.L114:
	.loc 1 402 0
	movs	r0, #0
.L105:
	.loc 1 413 0
	@ sp needed
.LVL182:
.LVL183:
	pop	{r2}
	mov	r8, r2
	pop	{r4, r5, r6, r7, pc}
.LVL184:
.L115:
	.loc 1 409 0
	movs	r0, #1
	b	.L105
	.cfi_endproc
.LFE211:
	.size	Chip_SSP_Int_RWFrames8Bits, .-Chip_SSP_Int_RWFrames8Bits
	.section	.text.Chip_SSP_Int_RWFrames16Bits,"ax",%progbits
	.align	1
	.global	Chip_SSP_Int_RWFrames16Bits
	.syntax unified
	.code	16
	.thumb_func
	.fpu softvfp
	.type	Chip_SSP_Int_RWFrames16Bits, %function
Chip_SSP_Int_RWFrames16Bits:
.LFB212:
	.loc 1 417 0
	.cfi_startproc
	@ args = 0, pretend = 0, frame = 0
	@ frame_needed = 0, uses_anonymous_args = 0
.LVL185:
	push	{r4, r5, r6, r7, lr}
	.cfi_def_cfa_offset 20
	.cfi_offset 4, -20
	.cfi_offset 5, -16
	.cfi_offset 6, -12
	.cfi_offset 7, -8
	.cfi_offset 14, -4
	mov	lr, r8
	push	{lr}
	.cfi_def_cfa_offset 24
	.cfi_offset 8, -24
	movs	r5, r0
	movs	r4, r1
.LVL186:
.LBB429:
.LBB430:
	.loc 2 311 0
	ldr	r3, [r0, #24]
.LVL187:
.LBE430:
.LBE429:
	.loc 1 420 0
	movs	r0, #0
.LVL188:
	.loc 1 419 0
	lsls	r3, r3, #31
	bmi	.L119
	.loc 1 423 0
	ldr	r3, [r1, #4]
	ldr	r2, [r1, #16]
	cmp	r3, r2
	bne	.L120
	.loc 1 423 0 is_stmt 0 discriminator 1
	ldr	r2, [r1, #12]
	cmp	r3, r2
	beq	.L125
.L120:
	.loc 1 425 0 is_stmt 1
	movs	r1, r4
.LVL189:
	movs	r0, r5
	bl	SSP_Read2BFifo
.LVL190:
.LBB431:
.LBB432:
	.loc 2 284 0
	ldr	r3, [r5, #12]
.LVL191:
.LBE432:
.LBE431:
	.loc 1 427 0
	lsls	r3, r3, #30
	bpl	.L126
	ldr	r3, [r4, #4]
	ldr	r2, [r4, #16]
	cmp	r3, r2
	beq	.L127
.LBB435:
.LBB436:
.LBB437:
.LBB438:
	.loc 2 377 0
	ldr	r2, .L132
	mov	r8, r2
.LBE438:
.LBE437:
.LBE436:
.LBE435:
.LBB445:
.LBB446:
	.loc 2 311 0
	movs	r6, #1
.LBE446:
.LBE445:
.LBB448:
.LBB433:
	.loc 2 284 0
	movs	r7, #2
	b	.L123
.LVL192:
.L121:
.LBE433:
.LBE448:
.LBB449:
.LBB443:
.LBB440:
.LBB439:
	.loc 2 377 0
	mov	r3, r8
	str	r3, [r5, #8]
.LVL193:
.L122:
.LBE439:
.LBE440:
	.loc 1 56 0
	ldr	r3, [r4, #4]
	adds	r3, r3, #2
	str	r3, [r4, #4]
.LVL194:
.LBE443:
.LBE449:
.LBB450:
.LBB447:
	.loc 2 311 0
	ldr	r3, [r5, #24]
.LVL195:
.LBE447:
.LBE450:
	.loc 1 432 0
	tst	r6, r3
	bne	.L128
	.loc 1 437 0
	movs	r1, r4
	movs	r0, r5
	bl	SSP_Read2BFifo
.LVL196:
.LBB451:
.LBB434:
	.loc 2 284 0
	ldr	r3, [r5, #12]
.LVL197:
.LBE434:
.LBE451:
	.loc 1 427 0
	tst	r7, r3
	beq	.L129
	.loc 1 427 0 is_stmt 0 discriminator 1
	ldr	r3, [r4, #4]
	ldr	r2, [r4, #16]
	cmp	r3, r2
	beq	.L131
.L123:
.LVL198:
.LBB452:
.LBB444:
	.loc 1 48 0 is_stmt 1
	ldr	r2, [r4]
	cmp	r2, #0
	beq	.L121
.LVL199:
.LBB441:
.LBB442:
	.loc 2 377 0
	ldrh	r3, [r2, r3]
.LVL200:
	str	r3, [r5, #8]
	b	.L122
.LVL201:
.L131:
.LBE442:
.LBE441:
.LBE444:
.LBE452:
	.loc 1 440 0
	movs	r0, #1
	b	.L119
.LVL202:
.L125:
	.loc 1 443 0
	movs	r0, #0
	b	.L119
.LVL203:
.L126:
	.loc 1 440 0
	movs	r0, #1
	b	.L119
.L127:
	movs	r0, #1
	b	.L119
.L128:
	.loc 1 433 0
	movs	r0, #0
.L119:
	.loc 1 444 0
	@ sp needed
.LVL204:
.LVL205:
	pop	{r2}
	mov	r8, r2
	pop	{r4, r5, r6, r7, pc}
.LVL206:
.L129:
	.loc 1 440 0
	movs	r0, #1
	b	.L119
.L133:
	.align	2
.L132:
	.word	65535
	.cfi_endproc
.LFE212:
	.size	Chip_SSP_Int_RWFrames16Bits, .-Chip_SSP_Int_RWFrames16Bits
	.section	.text.Chip_SSP_SetMaster,"ax",%progbits
	.align	1
	.global	Chip_SSP_SetMaster
	.syntax unified
	.code	16
	.thumb_func
	.fpu softvfp
	.type	Chip_SSP_SetMaster, %function
Chip_SSP_SetMaster:
.LFB213:
	.loc 1 448 0
	.cfi_startproc
	@ args = 0, pretend = 0, frame = 0
	@ frame_needed = 0, uses_anonymous_args = 0
	@ link register save eliminated.
.LVL207:
	.loc 1 449 0
	cmp	r1, #0
	bne	.L137
.LVL208:
.LBB453:
.LBB454:
	.loc 2 421 0
	ldr	r3, [r0, #4]
	movs	r2, #4
	orrs	r3, r2
	str	r3, [r0, #4]
.LVL209:
.L134:
.LBE454:
.LBE453:
	.loc 1 455 0
	@ sp needed
	bx	lr
.L137:
.LVL210:
.LBB455:
.LBB456:
	.loc 2 421 0
	ldr	r3, [r0, #4]
	movs	r2, #4
	bics	r3, r2
	str	r3, [r0, #4]
	b	.L134
.LBE456:
.LBE455:
	.cfi_endproc
.LFE213:
	.size	Chip_SSP_SetMaster, .-Chip_SSP_SetMaster
	.global	__aeabi_uidiv
	.section	.text.Chip_SSP_SetBitRate,"ax",%progbits
	.align	1
	.global	Chip_SSP_SetBitRate
	.syntax unified
	.code	16
	.thumb_func
	.fpu softvfp
	.type	Chip_SSP_SetBitRate, %function
Chip_SSP_SetBitRate:
.LFB214:
	.loc 1 459 0
	.cfi_startproc
	@ args = 0, pretend = 0, frame = 8
	@ frame_needed = 0, uses_anonymous_args = 0
.LVL211:
	push	{r4, r5, r6, r7, lr}
	.cfi_def_cfa_offset 20
	.cfi_offset 4, -20
	.cfi_offset 5, -16
	.cfi_offset 6, -12
	.cfi_offset 7, -8
	.cfi_offset 14, -4
	sub	sp, sp, #12
	.cfi_def_cfa_offset 32
	movs	r4, r0
	str	r0, [sp, #4]
	movs	r6, r1
.LVL212:
.LBB463:
.LBB464:
	.loc 1 152 0
	bl	Chip_Clock_GetMainClockRate
.LVL213:
	.loc 1 154 0
	ldr	r3, .L147
	cmp	r4, r3
	beq	.L146
.LBB465:
.LBB466:
	.file 3 "./inc/clock_11xx.h"
	.loc 3 374 0
	ldr	r2, .L147+4
	movs	r3, #156
	ldr	r1, [r2, r3]
.LBE466:
.LBE465:
	.loc 1 159 0
	bl	__aeabi_uidiv
.LVL214:
	str	r0, [sp]
.LVL215:
.L140:
.LBE464:
.LBE463:
	.loc 1 468 0
	adds	r3, r6, #1
	beq	.L144
	.loc 1 466 0
	movs	r5, #2
	.loc 1 464 0
	movs	r7, #0
.LVL216:
.L143:
	.loc 1 469 0
	adds	r4, r7, #1
.LVL217:
	movs	r1, r5
	muls	r1, r4
	ldr	r0, [sp]
	bl	__aeabi_uidiv
.LVL218:
	.loc 1 470 0
	cmp	r6, r0
	bcs	.L141
.LVL219:
	.loc 1 471 0
	movs	r7, r4
	.loc 1 472 0
	cmp	r4, #255
	bls	.L143
.LVL220:
	.loc 1 474 0
	adds	r5, r5, #2
.LVL221:
	.loc 1 473 0
	movs	r7, #0
.LVL222:
	b	.L143
.LVL223:
.L146:
.LBB470:
.LBB469:
.LBB467:
.LBB468:
	.loc 3 329 0
	ldr	r2, .L147+4
	movs	r3, #148
	ldr	r1, [r2, r3]
.LBE468:
.LBE467:
	.loc 1 155 0
	bl	__aeabi_uidiv
.LVL224:
	str	r0, [sp]
.LVL225:
	b	.L140
.LVL226:
.L144:
.LBE469:
.LBE470:
	.loc 1 466 0
	movs	r5, #2
	.loc 1 464 0
	movs	r7, #0
.LVL227:
.L141:
	.loc 1 479 0
	movs	r2, r5
	movs	r1, r7
	ldr	r0, [sp, #4]
	bl	Chip_SSP_SetClockRate
.LVL228:
	.loc 1 480 0
	add	sp, sp, #12
	@ sp needed
.LVL229:
	pop	{r4, r5, r6, r7, pc}
.L148:
	.align	2
.L147:
	.word	1074003968
	.word	1074036736
	.cfi_endproc
.LFE214:
	.size	Chip_SSP_SetBitRate, .-Chip_SSP_SetBitRate
	.section	.text.Chip_SSP_Init,"ax",%progbits
	.align	1
	.global	Chip_SSP_Init
	.syntax unified
	.code	16
	.thumb_func
	.fpu softvfp
	.type	Chip_SSP_Init, %function
Chip_SSP_Init:
.LFB215:
	.loc 1 484 0
	.cfi_startproc
	@ args = 0, pretend = 0, frame = 0
	@ frame_needed = 0, uses_anonymous_args = 0
.LVL230:
	push	{r4, lr}
	.cfi_def_cfa_offset 8
	.cfi_offset 4, -8
	.cfi_offset 14, -4
.LVL231:
.LBB492:
.LBB493:
	.loc 1 109 0
	ldr	r3, .L156
	cmp	r0, r3
	beq	.L155
.LVL232:
.LBE493:
.LBE492:
.LBB494:
.LBB495:
	.loc 3 297 0
	ldr	r3, .L156+4
	movs	r1, #128
	ldr	r4, [r3, r1]
	movs	r2, #128
	lsls	r2, r2, #11
	orrs	r2, r4
	str	r2, [r3, r1]
.LVL233:
.LBE495:
.LBE494:
.LBB497:
.LBB498:
.LBB499:
	.loc 3 364 0
	movs	r2, #156
	subs	r1, r1, #127
	str	r1, [r3, r2]
.LVL234:
.LBE499:
.LBE498:
.LBE497:
.LBB502:
.LBB503:
	.loc 1 130 0
	movs	r4, #2
.LVL235:
.L152:
.LBE503:
.LBE502:
.LBB505:
.LBB506:
.LBB507:
	.file 4 "./inc/sysctl_11xx.h"
	.loc 4 161 0
	ldr	r2, .L156+4
	ldr	r1, [r2, #4]
	movs	r3, #1
	lsls	r3, r3, r4
	bics	r1, r3
	str	r1, [r2, #4]
.LBE507:
.LBE506:
.LBB508:
.LBB509:
	.loc 4 171 0
	ldr	r1, [r2, #4]
	orrs	r3, r1
	str	r3, [r2, #4]
.LVL236:
.LBE509:
.LBE508:
.LBE505:
.LBB510:
.LBB511:
	.loc 2 421 0
	ldr	r3, [r0, #4]
	movs	r2, #4
	bics	r3, r2
	str	r3, [r0, #4]
.LVL237:
.LBE511:
.LBE510:
.LBB512:
.LBB513:
	.loc 2 408 0
	ldr	r3, [r0]
	adds	r2, r2, #251
	bics	r3, r2
	subs	r2, r2, #248
	orrs	r3, r2
	str	r3, [r0]
.LVL238:
.LBE513:
.LBE512:
	.loc 1 491 0
	ldr	r1, .L156+8
	bl	Chip_SSP_SetBitRate
.LVL239:
	.loc 1 492 0
	@ sp needed
	pop	{r4, pc}
.LVL240:
.L155:
.LBB514:
.LBB496:
	.loc 3 297 0
	ldr	r3, .L156+4
	movs	r1, #128
	ldr	r4, [r3, r1]
	movs	r2, #128
	lsls	r2, r2, #4
	orrs	r2, r4
	str	r2, [r3, r1]
.LVL241:
.LBE496:
.LBE514:
.LBB515:
.LBB500:
.LBB501:
	.loc 3 319 0
	movs	r2, #148
	subs	r1, r1, #127
	str	r1, [r3, r2]
.LVL242:
.LBE501:
.LBE500:
.LBE515:
.LBB516:
.LBB504:
	.loc 1 127 0
	movs	r4, #0
	b	.L152
.L157:
	.align	2
.L156:
	.word	1074003968
	.word	1074036736
	.word	100000
.LBE504:
.LBE516:
	.cfi_endproc
.LFE215:
	.size	Chip_SSP_Init, .-Chip_SSP_Init
	.section	.text.Chip_SSP_DeInit,"ax",%progbits
	.align	1
	.global	Chip_SSP_DeInit
	.syntax unified
	.code	16
	.thumb_func
	.fpu softvfp
	.type	Chip_SSP_DeInit, %function
Chip_SSP_DeInit:
.LFB216:
	.loc 1 496 0
	.cfi_startproc
	@ args = 0, pretend = 0, frame = 0
	@ frame_needed = 0, uses_anonymous_args = 0
	@ link register save eliminated.
.LVL243:
.LBB529:
.LBB530:
	.loc 2 244 0
	ldr	r2, [r0, #4]
	movs	r3, #13
	ands	r3, r2
	str	r3, [r0, #4]
.LVL244:
.LBE530:
.LBE529:
.LBB531:
.LBB532:
	.loc 1 109 0
	ldr	r3, .L164
	cmp	r0, r3
	beq	.L163
.LVL245:
.LBE532:
.LBE531:
.LBB533:
.LBB534:
	.loc 3 307 0
	ldr	r3, .L164+4
	movs	r1, #128
	ldr	r2, [r3, r1]
	ldr	r0, .L164+8
.LVL246:
	ands	r2, r0
	str	r2, [r3, r1]
.LVL247:
.LBE534:
.LBE533:
.LBB536:
.LBB537:
.LBB538:
	.loc 3 364 0
	movs	r2, #156
	movs	r1, #0
	str	r1, [r3, r2]
.LVL248:
.L158:
.LBE538:
.LBE537:
.LBE536:
	.loc 1 501 0
	@ sp needed
	bx	lr
.LVL249:
.L163:
.LBB541:
.LBB535:
	.loc 3 307 0
	ldr	r3, .L164+4
	movs	r1, #128
	ldr	r2, [r3, r1]
	ldr	r0, .L164+12
.LVL250:
	ands	r2, r0
	str	r2, [r3, r1]
.LVL251:
.LBE535:
.LBE541:
.LBB542:
.LBB539:
.LBB540:
	.loc 3 319 0
	movs	r2, #148
	movs	r1, #0
	str	r1, [r3, r2]
	b	.L158
.L165:
	.align	2
.L164:
	.word	1074003968
	.word	1074036736
	.word	-262145
	.word	-2049
.LBE540:
.LBE539:
.LBE542:
	.cfi_endproc
.LFE216:
	.size	Chip_SSP_DeInit, .-Chip_SSP_DeInit
	.text
.Letext0:
	.file 5 "/Developer/arm/gcc-arm-none-eabi/arm-none-eabi/include/machine/_default_types.h"
	.file 6 "/Developer/arm/gcc-arm-none-eabi/arm-none-eabi/include/sys/_stdint.h"
	.file 7 "./inc/lpc_types.h"
	.file 8 "./inc/chip.h"