	.cpu cortex-m0
	.eabi_attribute 20, 1
	.eabi_attribute 21, 1
	.eabi_attribute 23, 3
	.eabi_attribute 24, 1
	.eabi_attribute 25, 1
	.eabi_attribute 26, 1
	.eabi_attribute 30, 1
	.eabi_attribute 34, 0
	.eabi_attribute 18, 4
	.file	"uart_11xx.c"
	.text
.Ltext0:
	.cfi_sections	.debug_frame
	.section	.text.Chip_UART_Init,"ax",%progbits
	.align	1
	.global	Chip_UART_Init
	.syntax unified
	.code	16
	.thumb_func
	.fpu softvfp
	.type	Chip_UART_Init, %function
Chip_UART_Init:
.LFB198:
	.file 1 "src/uart_11xx.c"
	.loc 1 52 0
	.cfi_startproc
	@ args = 0, pretend = 0, frame = 0
	@ frame_needed = 0, uses_anonymous_args = 0
.LVL0:
	push	{r4, lr}
	.cfi_def_cfa_offset 8
	.cfi_offset 4, -8
	.cfi_offset 14, -4
.LVL1:
.LBB49:
.LBB50:
	.file 2 "./inc/clock_11xx.h"
	.loc 2 297 0
	ldr	r3, .L2
	movs	r1, #128
	ldr	r4, [r3, r1]
	movs	r2, #128
	lsls	r2, r2, #5
	orrs	r2, r4
	str	r2, [r3, r1]
.LVL2:
.LBE50:
.LBE49:
.LBB51:
.LBB52:
	.loc 2 341 0
	movs	r2, #152
	subs	r1, r1, #127
	str	r1, [r3, r2]
.LVL3:
.LBE52:
.LBE51:
.LBB53:
.LBB54:
	.file 3 "./inc/uart_11xx.h"
	.loc 3 406 0
	movs	r3, #7
	str	r3, [r0, #8]
.LVL4:
.LBE54:
.LBE53:
.LBB55:
.LBB56:
	.loc 3 421 0
	subs	r3, r3, #4
	str	r3, [r0, #12]
.LVL5:
.LBE56:
.LBE55:
	.loc 1 63 0
	adds	r3, r3, #13
	str	r3, [r0, #40]
	.loc 1 64 0
	@ sp needed
	pop	{r4, pc}
.L3:
	.align	2
.L2:
	.word	1074036736
	.cfi_endproc
.LFE198:
	.size	Chip_UART_Init, .-Chip_UART_Init
	.section	.text.Chip_UART_DeInit,"ax",%progbits
	.align	1
	.global	Chip_UART_DeInit
	.syntax unified
	.code	16
	.thumb_func
	.fpu softvfp
	.type	Chip_UART_DeInit, %function
Chip_UART_DeInit:
.LFB199:
	.loc 1 68 0
	.cfi_startproc
	@ args = 0, pretend = 0, frame = 0
	@ frame_needed = 0, uses_anonymous_args = 0
	@ link register save eliminated.
.LVL6:
.LBB57:
.LBB58:
	.loc 2 307 0
	ldr	r1, .L5
	movs	r2, #128
	ldr	r3, [r1, r2]
	ldr	r0, .L5+4
.LVL7:
	ands	r3, r0
	str	r3, [r1, r2]
.LVL8:
.LBE58:
.LBE57:
	.loc 1 70 0
	@ sp needed
	bx	lr
.L6:
	.align	2
.L5:
	.word	1074036736
	.word	-4097
	.cfi_endproc
.LFE199:
	.size	Chip_UART_DeInit, .-Chip_UART_DeInit
	.section	.text.Chip_UART_Send,"ax",%progbits
	.align	1
	.global	Chip_UART_Send
	.syntax unified
	.code	16
	.thumb_func
	.fpu softvfp
	.type	Chip_UART_Send, %function
Chip_UART_Send:
.LFB200:
	.loc 1 74 0
	.cfi_startproc
	@ args = 0, pretend = 0, frame = 0
	@ frame_needed = 0, uses_anonymous_args = 0
.LVL9:
	push	{r4, r5, lr}
	.cfi_def_cfa_offset 12
	.cfi_offset 4, -12
	.cfi_offset 5, -8
	.cfi_offset 14, -4
.LVL10:
	.loc 1 79 0
	cmp	r2, #0
	ble	.L10
.LVL11:
.LBB59:
.LBB60:
	.loc 3 507 0
	ldr	r3, [r0, #20]
.LVL12:
.LBE60:
.LBE59:
	.loc 1 79 0
	lsls	r3, r3, #26
	bpl	.L11
	.loc 1 75 0
	movs	r3, #0
	.loc 1 80 0
	movs	r5, #32
.LVL13:
.L9:
.LBB62:
.LBB63:
	.loc 3 325 0
	ldrb	r4, [r1, r3]
	str	r4, [r0]
.LVL14:
.LBE63:
.LBE62:
	.loc 1 83 0
	adds	r3, r3, #1
.LVL15:
	.loc 1 79 0
	cmp	r2, r3
	beq	.L7
.LVL16:
.LBB64:
.LBB61:
	.loc 3 507 0
	ldr	r4, [r0, #20]
.LVL17:
.LBE61:
.LBE64:
	.loc 1 79 0
	tst	r5, r4
	bne	.L9
.LVL18:
.L7:
	.loc 1 87 0
	movs	r0, r3
.LVL19:
	@ sp needed
	pop	{r4, r5, pc}
.LVL20:
.L10:
	.loc 1 75 0
	movs	r3, #0
	b	.L7
.L11:
	movs	r3, #0
	.loc 1 86 0
	b	.L7
	.cfi_endproc
.LFE200:
	.size	Chip_UART_Send, .-Chip_UART_Send
	.section	.text.Chip_UART_SendBlocking,"ax",%progbits
	.align	1
	.global	Chip_UART_SendBlocking
	.syntax unified
	.code	16
	.thumb_func
	.fpu softvfp
	.type	Chip_UART_SendBlocking, %function
Chip_UART_SendBlocking:
.LFB201:
	.loc 1 91 0
	.cfi_startproc
	@ args = 0, pretend = 0, frame = 0
	@ frame_needed = 0, uses_anonymous_args = 0
.LVL21:
	push	{r3, r4, r5, r6, r7, lr}
	.cfi_def_cfa_offset 24
	.cfi_offset 3, -24
	.cfi_offset 4, -20
	.cfi_offset 5, -16
	.cfi_offset 6, -12
	.cfi_offset 7, -8
	.cfi_offset 14, -4
	movs	r6, r0
	movs	r5, r1
	subs	r4, r2, #0
.LVL22:
	.loc 1 95 0
	ble	.L16
	.loc 1 92 0
	movs	r7, #0
.LVL23:
.L15:
	.loc 1 96 0
	movs	r2, r4
	movs	r1, r5
	movs	r0, r6
	bl	Chip_UART_Send
.LVL24:
	.loc 1 97 0
	subs	r4, r4, r0
.LVL25:
	.loc 1 98 0
	adds	r7, r7, r0
.LVL26:
	.loc 1 99 0
	adds	r5, r5, r0
.LVL27:
	.loc 1 95 0
	cmp	r4, #0
	bgt	.L15
.LVL28:
.L13:
	.loc 1 103 0
	movs	r0, r7
	@ sp needed
.LVL29:
.LVL30:
.LVL31:
	pop	{r3, r4, r5, r6, r7, pc}
.LVL32:
.L16:
	.loc 1 92 0
	movs	r7, #0
	.loc 1 102 0
	b	.L13
	.cfi_endproc
.LFE201:
	.size	Chip_UART_SendBlocking, .-Chip_UART_SendBlocking
	.section	.text.Chip_UART_Read,"ax",%progbits
	.align	1
	.global	Chip_UART_Read
	.syntax unified
	.code	16
	.thumb_func
	.fpu softvfp
	.type	Chip_UART_Read, %function
Chip_UART_Read:
.LFB202:
	.loc 1 107 0
	.cfi_startproc
	@ args = 0, pretend = 0, frame = 0
	@ frame_needed = 0, uses_anonymous_args = 0
.LVL33:
	push	{r4, r5, lr}
	.cfi_def_cfa_offset 12
	.cfi_offset 4, -12
	.cfi_offset 5, -8
	.cfi_offset 14, -4
.LVL34:
	.loc 1 112 0
	cmp	r2, #0
	ble	.L21
.LVL35:
.LBB65:
.LBB66:
	.loc 3 507 0
	ldr	r3, [r0, #20]
.LVL36:
.LBE66:
.LBE65:
	.loc 1 112 0
	lsls	r3, r3, #31
	bpl	.L22
	.loc 1 108 0
	movs	r3, #0
	.loc 1 113 0
	movs	r5, #1
.LVL37:
.L20:
.LBB68:
.LBB69:
	.loc 3 338 0
	ldr	r4, [r0]
.LVL38:
	strb	r4, [r1, r3]
.LVL39:
.LBE69:
.LBE68:
	.loc 1 116 0
	adds	r3, r3, #1
.LVL40:
	.loc 1 112 0
	cmp	r2, r3
	beq	.L18
.LVL41:
.LBB70:
.LBB67:
	.loc 3 507 0
	ldr	r4, [r0, #20]
.LVL42:
.LBE67:
.LBE70:
	.loc 1 112 0
	tst	r5, r4
	bne	.L20
.LVL43:
.L18:
	.loc 1 120 0
	movs	r0, r3
.LVL44:
	@ sp needed
	pop	{r4, r5, pc}
.LVL45:
.L21:
	.loc 1 108 0
	movs	r3, #0
	b	.L18
.L22:
	movs	r3, #0
	.loc 1 119 0
	b	.L18
	.cfi_endproc
.LFE202:
	.size	Chip_UART_Read, .-Chip_UART_Read
	.section	.text.Chip_UART_ReadBlocking,"ax",%progbits
	.align	1
	.global	Chip_UART_ReadBlocking
	.syntax unified
	.code	16
	.thumb_func
	.fpu softvfp
	.type	Chip_UART_ReadBlocking, %function
Chip_UART_ReadBlocking:
.LFB203:
	.loc 1 124 0
	.cfi_startproc
	@ args = 0, pretend = 0, frame = 0
	@ frame_needed = 0, uses_anonymous_args = 0
.LVL46:
	push	{r3, r4, r5, r6, r7, lr}
	.cfi_def_cfa_offset 24
	.cfi_offset 3, -24
	.cfi_offset 4, -20
	.cfi_offset 5, -16
	.cfi_offset 6, -12
	.cfi_offset 7, -8
	.cfi_offset 14, -4
	movs	r6, r0
	movs	r7, r1
	subs	r4, r2, #0
.LVL47:
	.loc 1 128 0
	ble	.L27
	.loc 1 125 0
	movs	r5, #0
.LVL48:
.L26:
	.loc 1 129 0
	movs	r2, r4
	movs	r1, r7
	movs	r0, r6
	bl	Chip_UART_Read
.LVL49:
	.loc 1 130 0
	subs	r4, r4, r0
.LVL50:
	.loc 1 131 0
	adds	r5, r5, r0
.LVL51:
	.loc 1 132 0
	adds	r7, r7, r0
.LVL52:
	.loc 1 128 0
	cmp	r4, r5
	bgt	.L26
.LVL53:
.L24:
	.loc 1 136 0
	movs	r0, r5
	@ sp needed
.LVL54:
.LVL55:
.LVL56:
	pop	{r3, r4, r5, r6, r7, pc}
.LVL57:
.L27:
	.loc 1 125 0
	movs	r5, #0
	.loc 1 135 0
	b	.L24
	.cfi_endproc
.LFE203:
	.size	Chip_UART_ReadBlocking, .-Chip_UART_ReadBlocking
	.global	__aeabi_uidiv
	.section	.text.Chip_UART_SetBaud,"ax",%progbits
	.align	1
	.global	Chip_UART_SetBaud
	.syntax unified
	.code	16
	.thumb_func
	.fpu softvfp
	.type	Chip_UART_SetBaud, %function
Chip_UART_SetBaud:
.LFB204:
	.loc 1 140 0
	.cfi_startproc
	@ args = 0, pretend = 0, frame = 0
	@ frame_needed = 0, uses_anonymous_args = 0
.LVL58:
	push	{r4, r5, r6, lr}
	.cfi_def_cfa_offset 16
	.cfi_offset 4, -16
	.cfi_offset 5, -12
	.cfi_offset 6, -8
	.cfi_offset 14, -4
	movs	r4, r0
	movs	r6, r1
	.loc 1 144 0
	bl	Chip_Clock_GetMainClockRate
.LVL59:
	movs	r5, r0
.LVL60:
	.loc 1 145 0
	lsls	r1, r6, #4
	bl	__aeabi_uidiv
.LVL61:
	movs	r1, r0
.LVL62:
	movs	r3, #255
	movs	r6, r3
.LVL63:
	ands	r6, r0
.LVL64:
.LBB71:
.LBB72:
	.loc 3 431 0
	ldr	r2, [r4, #12]
	movs	r0, #128
.LVL65:
	orrs	r2, r0
	str	r2, [r4, #12]
.LVL66:
.LBE72:
.LBE71:
.LBB73:
.LBB74:
	.loc 3 456 0
	str	r6, [r4]
.LBE74:
.LBE73:
	.loc 1 148 0
	lsrs	r2, r1, #8
.LVL67:
	ands	r3, r2
.LBB76:
.LBB75:
	.loc 3 457 0
	str	r3, [r4, #4]
.LVL68:
.LBE75:
.LBE76:
.LBB77:
.LBB78:
	.loc 3 441 0
	ldr	r3, [r4, #12]
	bics	r3, r0
	str	r3, [r4, #12]
.LVL69:
.LBE78:
.LBE77:
	.loc 1 157 0
	movs	r0, r5
	bl	__aeabi_uidiv
.LVL70:
	.loc 1 158 0
	@ sp needed
.LVL71:
.LVL72:
.LVL73:
	pop	{r4, r5, r6, pc}
	.cfi_endproc
.LFE204:
	.size	Chip_UART_SetBaud, .-Chip_UART_SetBaud
	.section	.text.Chip_UART_RXIntHandlerRB,"ax",%progbits
	.align	1
	.global	Chip_UART_RXIntHandlerRB
	.syntax unified
	.code	16
	.thumb_func
	.fpu softvfp
	.type	Chip_UART_RXIntHandlerRB, %function
Chip_UART_RXIntHandlerRB:
.LFB205:
	.loc 1 162 0
	.cfi_startproc
	@ args = 0, pretend = 0, frame = 8
	@ frame_needed = 0, uses_anonymous_args = 0
.LVL74:
	push	{r4, r5, r6, r7, lr}
	.cfi_def_cfa_offset 20
	.cfi_offset 4, -20
	.cfi_offset 5, -16
	.cfi_offset 6, -12
	.cfi_offset 7, -8
	.cfi_offset 14, -4
	sub	sp, sp, #12
	.cfi_def_cfa_offset 32
	movs	r4, r0
	movs	r6, r1
.LVL75:
.LBB79:
.LBB80:
	.loc 3 507 0
	ldr	r3, [r0, #20]
.LVL76:
.LBE80:
.LBE79:
	.loc 1 164 0
	lsls	r3, r3, #31
	bpl	.L30
.LBB82:
	.loc 1 165 0
	mov	r3, sp
	adds	r5, r3, #7
.LBE82:
	.loc 1 164 0
	movs	r7, #1
.LVL77:
.L32:
.LBB85:
.LBB83:
.LBB84:
	.loc 3 338 0
	ldr	r3, [r4]
.LVL78:
	strb	r3, [r5]
.LBE84:
.LBE83:
	.loc 1 166 0
	movs	r1, r5
	movs	r0, r6
	bl	RingBuffer_Insert
.LVL79:
.LBE85:
.LBB86:
.LBB81:
	.loc 3 507 0
	ldr	r3, [r4, #20]
.LVL80:
.LBE81:
.LBE86:
	.loc 1 164 0
	tst	r7, r3
	bne	.L32
.L30:
	.loc 1 168 0
	add	sp, sp, #12
	@ sp needed
.LVL81:
.LVL82:
	pop	{r4, r5, r6, r7, pc}
	.cfi_endproc
.LFE205:
	.size	Chip_UART_RXIntHandlerRB, .-Chip_UART_RXIntHandlerRB
	.section	.text.Chip_UART_TXIntHandlerRB,"ax",%progbits
	.align	1
	.global	Chip_UART_TXIntHandlerRB
	.syntax unified
	.code	16
	.thumb_func
	.fpu softvfp
	.type	Chip_UART_TXIntHandlerRB, %function
Chip_UART_TXIntHandlerRB:
.LFB206:
	.loc 1 172 0
	.cfi_startproc
	@ args = 0, pretend = 0, frame = 8
	@ frame_needed = 0, uses_anonymous_args = 0
.LVL83:
	push	{r4, r5, r6, r7, lr}
	.cfi_def_cfa_offset 20
	.cfi_offset 4, -20
	.cfi_offset 5, -16
	.cfi_offset 6, -12
	.cfi_offset 7, -8
	.cfi_offset 14, -4
	sub	sp, sp, #12
	.cfi_def_cfa_offset 32
	movs	r4, r0
	movs	r6, r1
.LVL84:
.LBB87:
.LBB88:
	.loc 3 507 0
	ldr	r3, [r0, #20]
.LVL85:
.LBE88:
.LBE87:
	.loc 1 177 0
	mov	r2, sp
	adds	r5, r2, #7
	.loc 1 176 0
	movs	r7, #32
	lsls	r3, r3, #26
	bpl	.L34
.LVL86:
.L35:
	.loc 1 177 0 discriminator 1
	movs	r1, r5
	movs	r0, r6
	bl	RingBuffer_Pop
.LVL87:
	.loc 1 176 0 discriminator 1
	cmp	r0, #0
	beq	.L34
.LVL88:
.LBB90:
.LBB91:
	.loc 3 325 0
	ldrb	r3, [r5]
	str	r3, [r4]
.LVL89:
.LBE91:
.LBE90:
.LBB92:
.LBB89:
	.loc 3 507 0
	ldr	r3, [r4, #20]
.LVL90:
.LBE89:
.LBE92:
	.loc 1 176 0
	tst	r7, r3
	bne	.L35
.LVL91:
.L34:
	.loc 1 180 0
	add	sp, sp, #12
	@ sp needed
.LVL92:
.LVL93:
	pop	{r4, r5, r6, r7, pc}
	.cfi_endproc
.LFE206:
	.size	Chip_UART_TXIntHandlerRB, .-Chip_UART_TXIntHandlerRB
	.section	.text.Chip_UART_SendRB,"ax",%progbits
	.align	1
	.global	Chip_UART_SendRB
	.syntax unified
	.code	16
	.thumb_func
	.fpu softvfp
	.type	Chip_UART_SendRB, %function
Chip_UART_SendRB:
.LFB207:
	.loc 1 184 0
	.cfi_startproc
	@ args = 0, pretend = 0, frame = 8
	@ frame_needed = 0, uses_anonymous_args = 0
.LVL94:
	push	{r4, r5, r6, r7, lr}
	.cfi_def_cfa_offset 20
	.cfi_offset 4, -20
	.cfi_offset 5, -16
	.cfi_offset 6, -12
	.cfi_offset 7, -8
	.cfi_offset 14, -4
	sub	sp, sp, #12
	.cfi_def_cfa_offset 32
	movs	r4, r0
	movs	r0, r1
.LVL95:
	movs	r1, r2
.LVL96:
	movs	r7, r3
.LVL97:
.LBB93:
.LBB94:
	.loc 3 368 0
	ldr	r3, [r4, #4]
.LVL98:
	movs	r5, #2
	bics	r3, r5
	str	r3, [r4, #4]
.LVL99:
.LBE94:
.LBE93:
	.loc 1 192 0
	movs	r2, r7
.LVL100:
	str	r1, [sp, #4]
	str	r0, [sp]
	bl	RingBuffer_InsertMult
.LVL101:
	movs	r6, r0
.LVL102:
	.loc 1 193 0
	ldr	r1, [sp]
	movs	r0, r4
.LVL103:
	bl	Chip_UART_TXIntHandlerRB
.LVL104:
	.loc 1 196 0
	subs	r2, r7, r6
	ldr	r1, [sp, #4]
	adds	r1, r1, r6
	ldr	r0, [sp]
	bl	RingBuffer_InsertMult
.LVL105:
.LBB95:
.LBB96:
	.loc 3 353 0
	ldr	r3, [r4, #4]
	orrs	r3, r5
	str	r3, [r4, #4]
.LVL106:
.LBE96:
.LBE95:
	.loc 1 196 0
	adds	r0, r0, r6
.LVL107:
	.loc 1 202 0
	add	sp, sp, #12
.LVL108:
	@ sp needed
.LVL109:
.LVL110:
	pop	{r4, r5, r6, r7, pc}
	.cfi_endproc
.LFE207:
	.size	Chip_UART_SendRB, .-Chip_UART_SendRB
	.section	.text.Chip_UART_ReadRB,"ax",%progbits
	.align	1
	.global	Chip_UART_ReadRB
	.syntax unified
	.code	16
	.thumb_func
	.fpu softvfp
	.type	Chip_UART_ReadRB, %function
Chip_UART_ReadRB:
.LFB208:
	.loc 1 206 0
	.cfi_startproc
	@ args = 0, pretend = 0, frame = 0
	@ frame_needed = 0, uses_anonymous_args = 0
.LVL111:
	push	{r4, lr}
	.cfi_def_cfa_offset 8
	.cfi_offset 4, -8
	.cfi_offset 14, -4
	movs	r0, r1
.LVL112:
	movs	r1, r2
.LVL113:
	.loc 1 209 0
	movs	r2, r3
.LVL114:
	bl	RingBuffer_PopMult
.LVL115:
	.loc 1 210 0
	@ sp needed
	pop	{r4, pc}
	.cfi_endproc
.LFE208:
	.size	Chip_UART_ReadRB, .-Chip_UART_ReadRB
	.section	.text.Chip_UART_IRQRBHandler,"ax",%progbits
	.align	1
	.global	Chip_UART_IRQRBHandler
	.syntax unified
	.code	16
	.thumb_func
	.fpu softvfp
	.type	Chip_UART_IRQRBHandler, %function
Chip_UART_IRQRBHandler:
.LFB209:
	.loc 1 214 0
	.cfi_startproc
	@ args = 0, pretend = 0, frame = 0
	@ frame_needed = 0, uses_anonymous_args = 0
.LVL116:
	push	{r4, r5, r6, lr}
	.cfi_def_cfa_offset 16
	.cfi_offset 4, -16
	.cfi_offset 5, -12
	.cfi_offset 6, -8
	.cfi_offset 14, -4
	movs	r4, r0
	movs	r6, r1
	movs	r5, r2
	.loc 1 216 0
	ldr	r3, [r0, #4]
	lsls	r3, r3, #30
	bmi	.L43
.LVL117:
.L42:
	.loc 1 226 0
	movs	r1, r6
	movs	r0, r4
	bl	Chip_UART_RXIntHandlerRB
.LVL118:
	.loc 1 227 0
	@ sp needed
.LVL119:
.LVL120:
.LVL121:
	pop	{r4, r5, r6, pc}
.LVL122:
.L43:
	.loc 1 217 0
	movs	r1, r2
.LVL123:
	bl	Chip_UART_TXIntHandlerRB
.LVL124:
.LBB97:
.LBB98:
	.file 4 "./inc/ring_buffer.h"
	.loc 4 135 0
	ldr	r2, [r5, #12]
	ldr	r3, [r5, #16]
.LVL125:
.LBE98:
.LBE97:
	.loc 1 220 0
	cmp	r2, r3
	bne	.L42
.LVL126:
.LBB99:
.LBB100:
	.loc 3 368 0
	ldr	r3, [r4, #4]
	movs	r2, #2
	bics	r3, r2
	str	r3, [r4, #4]
	b	.L42
.LBE100:
.LBE99:
	.cfi_endproc
.LFE209:
	.size	Chip_UART_IRQRBHandler, .-Chip_UART_IRQRBHandler
	.global	__aeabi_uidivmod
	.section	.text.Chip_UART_SetBaudFDR,"ax",%progbits
	.align	1
	.global	Chip_UART_SetBaudFDR
	.syntax unified
	.code	16
	.thumb_func
	.fpu softvfp
	.type	Chip_UART_SetBaudFDR, %function
Chip_UART_SetBaudFDR:
.LFB210:
	.loc 1 232 0
	.cfi_startproc
	@ args = 0, pretend = 0, frame = 8
	@ frame_needed = 0, uses_anonymous_args = 0
.LVL127:
	push	{r4, r5, r6, r7, lr}
	.cfi_def_cfa_offset 20
	.cfi_offset 4, -20
	.cfi_offset 5, -16
	.cfi_offset 6, -12
	.cfi_offset 7, -8
	.cfi_offset 14, -4
	sub	sp, sp, #12
	.cfi_def_cfa_offset 32
	movs	r6, r0
	.loc 1 236 0
	lsls	r7, r1, #4
.LVL128:
	.loc 1 240 0
	bl	Chip_Clock_GetMainClockRate
.LVL129:
	str	r0, [sp, #4]
.LVL130:
	.loc 1 245 0
	movs	r1, r7
	bl	__aeabi_uidivmod
.LVL131:
	subs	r4, r1, #0
.LVL132:
	.loc 1 255 0
	beq	.L45
	.loc 1 256 0
	movs	r0, r7
	bl	__aeabi_uidiv
.LVL133:
	movs	r5, r0
.LVL134:
	.loc 1 262 0
	movs	r4, #0
	movs	r3, #12
	cmp	r3, r0
	adcs	r4, r4, r4
.LVL135:
.L45:
	.loc 1 267 0
	movs	r3, #15
	ands	r5, r3
.LVL136:
	.loc 1 268 0
	movs	r0, r7
	muls	r0, r4
	movs	r1, r5
	bl	__aeabi_uidiv
.LVL137:
	adds	r1, r0, r7
	ldr	r0, [sp, #4]
	bl	__aeabi_uidiv
.LVL138:
	movs	r7, r0
.LVL139:
.LBB101:
.LBB102:
	.loc 3 431 0
	ldr	r3, [r6, #12]
	movs	r2, #128
	orrs	r3, r2
	str	r3, [r6, #12]
.LVL140:
	movs	r3, #255
	movs	r1, r3
	ands	r1, r0
.LBE102:
.LBE101:
.LBB103:
.LBB104:
	.loc 3 456 0
	str	r1, [r6]
.LBE104:
.LBE103:
	.loc 1 272 0
	lsrs	r1, r0, #8
	ands	r3, r1
.LBB106:
.LBB105:
	.loc 3 457 0
	str	r3, [r6, #4]
.LVL141:
.LBE105:
.LBE106:
.LBB107:
.LBB108:
	.loc 3 441 0
	ldr	r3, [r6, #12]
	bics	r3, r2
	str	r3, [r6, #12]
.LVL142:
.LBE108:
.LBE107:
	.loc 1 276 0
	lsls	r3, r5, #4
	orrs	r3, r4
	str	r3, [r6, #40]
.LVL143:
	.loc 1 279 0
	lsls	r4, r4, #4
.LVL144:
	muls	r4, r0
.LVL145:
	movs	r0, r4
.LVL146:
	movs	r1, r5
	bl	__aeabi_uidiv
.LVL147:
	lsls	r7, r7, #4
.LVL148:
	adds	r1, r0, r7
	ldr	r0, [sp, #4]
	bl	__aeabi_uidiv
.LVL149:
	.loc 1 281 0
	add	sp, sp, #12
	@ sp needed
.LVL150:
.LVL151:
	pop	{r4, r5, r6, r7, pc}
	.cfi_endproc
.LFE210:
	.size	Chip_UART_SetBaudFDR, .-Chip_UART_SetBaudFDR
	.text
.Letext0:
	.file 5 "/Developer/arm/gcc-arm-none-eabi/arm-none-eabi/include/machine/_default_types.h"
	.file 6 "/Developer/arm/gcc-arm-none-eabi/arm-none-eabi/include/sys/_stdint.h"
	.file 7 "./inc/chip.h"
	.file 8 "./inc/sysctl_11xx.h"