	.cpu cortex-m0
	.eabi_attribute 20, 1
	.eabi_attribute 21, 1
	.eabi_attribute 23, 3
	.eabi_attribute 24, 1
	.eabi_attribute 25, 1
	.eabi_attribute 26, 1
	.eabi_attribute 30, 1
	.eabi_attribute 34, 0
	.eabi_attribute 18, 4
	.file	"board.c"
	.text
.Ltext0:
	.cfi_sections	.debug_frame
	.section	.text.__write,"ax",%progbits
	.align	1
	.global	__write
	.syntax unified
	.code	16
	.thumb_func
	.fpu softvfp
	.type	__write, %function
__write:
.LFB201:
	.file 1 "./inc/retarget.h"
	.loc 1 225 0
	.cfi_startproc
	@ args = 0, pretend = 0, frame = 0
	@ frame_needed = 0, uses_anonymous_args = 0
	@ link register save eliminated.
.LVL0:
	.loc 1 234 0
	movs	r0, r2
.LVL1:
	@ sp needed
	bx	lr
	.cfi_endproc
.LFE201:
	.size	__write, .-__write
	.section	.text.__readc,"ax",%progbits
	.align	1
	.global	__readc
	.syntax unified
	.code	16
	.thumb_func
	.fpu softvfp
	.type	__readc, %function
__readc:
.LFB202:
	.loc 1 241 0
	.cfi_startproc
	@ args = 0, pretend = 0, frame = 0
	@ frame_needed = 0, uses_anonymous_args = 0
	@ link register save eliminated.
	.loc 1 247 0
	movs	r0, #1
	.loc 1 249 0
	rsbs	r0, r0, #0
	@ sp needed
	bx	lr
	.cfi_endproc
.LFE202:
	.size	__readc, .-__readc
	.section	.text.Board_UARTPutChar,"ax",%progbits
	.align	1
	.global	Board_UARTPutChar
	.syntax unified
	.code	16
	.thumb_func
	.fpu softvfp
	.type	Board_UARTPutChar, %function
Board_UARTPutChar:
.LFB203:
	.file 2 "src/board.c"
	.loc 2 57 0
	.cfi_startproc
	@ args = 0, pretend = 0, frame = 8
	@ frame_needed = 0, uses_anonymous_args = 0
.LVL2:
	push	{lr}
	.cfi_def_cfa_offset 4
	.cfi_offset 14, -4
	sub	sp, sp, #12
	.cfi_def_cfa_offset 16
	mov	r3, sp
	adds	r1, r3, #7
	strb	r0, [r1]
	.loc 2 59 0
	movs	r2, #1
	ldr	r0, .L4
.LVL3:
	bl	Chip_UART_SendBlocking
.LVL4:
	.loc 2 61 0
	add	sp, sp, #12
	@ sp needed
	pop	{pc}
.L5:
	.align	2
.L4:
	.word	1073774592
	.cfi_endproc
.LFE203:
	.size	Board_UARTPutChar, .-Board_UARTPutChar
	.section	.text.Board_UARTGetChar,"ax",%progbits
	.align	1
	.global	Board_UARTGetChar
	.syntax unified
	.code	16
	.thumb_func
	.fpu softvfp
	.type	Board_UARTGetChar, %function
Board_UARTGetChar:
.LFB204:
	.loc 2 65 0
	.cfi_startproc
	@ args = 0, pretend = 0, frame = 8
	@ frame_needed = 0, uses_anonymous_args = 0
	push	{lr}
	.cfi_def_cfa_offset 4
	.cfi_offset 14, -4
	sub	sp, sp, #12
	.cfi_def_cfa_offset 16
	.loc 2 69 0
	movs	r2, #1
	mov	r3, sp
	adds	r1, r3, #7
	ldr	r0, .L9
	bl	Chip_UART_Read
.LVL5:
	cmp	r0, #1
	bne	.L8
	.loc 2 70 0
	mov	r3, sp
	ldrb	r0, [r3, #7]
.L6:
	.loc 2 74 0
	add	sp, sp, #12
	@ sp needed
	pop	{pc}
.L8:
	.loc 2 73 0
	movs	r0, #1
	rsbs	r0, r0, #0
	b	.L6
.L10:
	.align	2
.L9:
	.word	1073774592
	.cfi_endproc
.LFE204:
	.size	Board_UARTGetChar, .-Board_UARTGetChar
	.section	.text.Board_UARTPutSTR,"ax",%progbits
	.align	1
	.global	Board_UARTPutSTR
	.syntax unified
	.code	16
	.thumb_func
	.fpu softvfp
	.type	Board_UARTPutSTR, %function
Board_UARTPutSTR:
.LFB205:
	.loc 2 78 0
	.cfi_startproc
	@ args = 0, pretend = 0, frame = 0
	@ frame_needed = 0, uses_anonymous_args = 0
.LVL6:
	push	{r4, lr}
	.cfi_def_cfa_offset 8
	.cfi_offset 4, -8
	.cfi_offset 14, -4
	movs	r4, r0
	.loc 2 80 0
	ldrb	r0, [r0]
.LVL7:
	cmp	r0, #0
	beq	.L11
.L13:
	.loc 2 81 0
	adds	r4, r4, #1
.LVL8:
	bl	Board_UARTPutChar
.LVL9:
	.loc 2 80 0
	ldrb	r0, [r4]
	cmp	r0, #0
	bne	.L13
.L11:
	.loc 2 84 0
	@ sp needed
.LVL10:
	pop	{r4, pc}
	.cfi_endproc
.LFE205:
	.size	Board_UARTPutSTR, .-Board_UARTPutSTR
	.section	.text.Board_Debug_Init,"ax",%progbits
	.align	1
	.global	Board_Debug_Init
	.syntax unified
	.code	16
	.thumb_func
	.fpu softvfp
	.type	Board_Debug_Init, %function
Board_Debug_Init:
.LFB206:
	.loc 2 88 0
	.cfi_startproc
	@ args = 0, pretend = 0, frame = 0
	@ frame_needed = 0, uses_anonymous_args = 0
	push	{r4, lr}
	.cfi_def_cfa_offset 8
	.cfi_offset 4, -8
	.cfi_offset 14, -4
.LVL11:
.LBB20:
.LBB21:
	.file 3 "../lpc_chip_11cxx_lib/inc/iocon_11xx.h"
	.loc 3 251 0
	ldr	r3, .L16
	movs	r2, #1
	movs	r1, #164
	str	r2, [r3, r1]
.LVL12:
.LBE21:
.LBE20:
.LBB22:
.LBB23:
	adds	r1, r1, #4
	str	r2, [r3, r1]
.LVL13:
.LBE23:
.LBE22:
	.loc 2 94 0
	ldr	r4, .L16+4
	movs	r0, r4
	bl	Chip_UART_Init
.LVL14:
	.loc 2 95 0
	movs	r1, #225
	lsls	r1, r1, #9
	movs	r0, r4
	bl	Chip_UART_SetBaud
.LVL15:
.LBB24:
.LBB25:
	.file 4 "../lpc_chip_11cxx_lib/inc/uart_11xx.h"
	.loc 4 421 0
	movs	r3, #3
	str	r3, [r4, #12]
.LVL16:
.LBE25:
.LBE24:
.LBB26:
.LBB27:
	.loc 4 406 0
	adds	r3, r3, #126
	str	r3, [r4, #8]
.LVL17:
.LBE27:
.LBE26:
.LBB28:
.LBB29:
	.loc 4 302 0
	subs	r3, r3, #1
	str	r3, [r4, #48]
.LVL18:
.LBE29:
.LBE28:
	.loc 2 100 0
	@ sp needed
	pop	{r4, pc}
.L17:
	.align	2
.L16:
	.word	1074020352
	.word	1073774592
	.cfi_endproc
.LFE206:
	.size	Board_Debug_Init, .-Board_Debug_Init
	.section	.text.Board_LED_Set,"ax",%progbits
	.align	1
	.global	Board_LED_Set
	.syntax unified
	.code	16
	.thumb_func
	.fpu softvfp
	.type	Board_LED_Set, %function
Board_LED_Set:
.LFB208:
	.loc 2 111 0
	.cfi_startproc
	@ args = 0, pretend = 0, frame = 0
	@ frame_needed = 0, uses_anonymous_args = 0
	@ link register save eliminated.
.LVL19:
	.loc 2 112 0
	cmp	r0, #0
	bne	.L18
.LVL20:
.LBB30:
.LBB31:
	.file 5 "../lpc_chip_11cxx_lib/inc/gpio_11xx_2.h"
	.loc 5 104 0
	lsls	r1, r1, #7
.LVL21:
	movs	r2, #160
	lsls	r2, r2, #23
	movs	r3, #128
	lsls	r3, r3, #2
	str	r1, [r2, r3]
.LVL22:
.L18:
.LBE31:
.LBE30:
	.loc 2 115 0
	@ sp needed
	bx	lr
	.cfi_endproc
.LFE208:
	.size	Board_LED_Set, .-Board_LED_Set
	.section	.text.Board_LED_Test,"ax",%progbits
	.align	1
	.global	Board_LED_Test
	.syntax unified
	.code	16
	.thumb_func
	.fpu softvfp
	.type	Board_LED_Test, %function
Board_LED_Test:
.LFB209:
	.loc 2 119 0
	.cfi_startproc
	@ args = 0, pretend = 0, frame = 0
	@ frame_needed = 0, uses_anonymous_args = 0
	@ link register save eliminated.
.LVL23:
.LBB32:
.LBB33:
	.loc 5 130 0
	movs	r2, #160
	lsls	r2, r2, #23
	movs	r3, #128
	lsls	r3, r3, #2
	ldr	r0, [r2, r3]
.LVL24:
	subs	r3, r0, #1
	sbcs	r0, r0, r3
.LBE33:
.LBE32:
	.loc 2 120 0
	uxtb	r0, r0
	.loc 2 121 0
	@ sp needed
	bx	lr
	.cfi_endproc
.LFE209:
	.size	Board_LED_Test, .-Board_LED_Test
	.section	.text.Board_LED_Toggle,"ax",%progbits
	.align	1
	.global	Board_LED_Toggle
	.syntax unified
	.code	16
	.thumb_func
	.fpu softvfp
	.type	Board_LED_Toggle, %function
Board_LED_Toggle:
.LFB210:
	.loc 2 124 0
	.cfi_startproc
	@ args = 0, pretend = 0, frame = 0
	@ frame_needed = 0, uses_anonymous_args = 0
	@ link register save eliminated.
.LVL25:
	.loc 2 125 0
	cmp	r0, #0
	bne	.L21
.LVL26:
.LBB34:
.LBB35:
	.loc 5 403 0
	movs	r1, #160
	lsls	r1, r1, #23
	movs	r2, #128
	lsls	r2, r2, #2
	ldr	r3, [r1, r2]
	adds	r0, r0, #128
.LVL27:
	eors	r3, r0
	str	r3, [r1, r2]
.LVL28:
.L21:
.LBE35:
.LBE34:
	.loc 2 127 0
	@ sp needed
	bx	lr
	.cfi_endproc
.LFE210:
	.size	Board_LED_Toggle, .-Board_LED_Toggle
	.section	.text.Board_Init,"ax",%progbits
	.align	1
	.global	Board_Init
	.syntax unified
	.code	16
	.thumb_func
	.fpu softvfp
	.type	Board_Init, %function
Board_Init:
.LFB211:
	.loc 2 132 0
	.cfi_startproc
	@ args = 0, pretend = 0, frame = 0
	@ frame_needed = 0, uses_anonymous_args = 0
	push	{r4, lr}
	.cfi_def_cfa_offset 8
	.cfi_offset 4, -8
	.cfi_offset 14, -4
	.loc 2 137 0
	movs	r4, #160
	lsls	r4, r4, #23
	movs	r0, r4
	bl	Chip_GPIO_Init
.LVL29:
.LBB40:
.LBB41:
.LBB42:
	.loc 5 155 0
	movs	r2, #128
	lsls	r2, r2, #8
	ldr	r3, [r4, r2]
	movs	r1, #128
	orrs	r3, r1
	str	r3, [r4, r2]
.LVL30:
.LBE42:
.LBE41:
.LBE40:
	.loc 2 141 0
	@ sp needed
	pop	{r4, pc}
	.cfi_endproc
.LFE211:
	.size	Board_Init, .-Board_Init
	.global	ExtRateIn
	.global	OscRateIn
	.section	.rodata.ExtRateIn,"a",%progbits
	.align	2
	.type	ExtRateIn, %object
	.size	ExtRateIn, 4
ExtRateIn:
	.space	4
	.section	.rodata.OscRateIn,"a",%progbits
	.align	2
	.type	OscRateIn, %object
	.size	OscRateIn, 4
OscRateIn:
	.word	12000000
	.text
.Letext0:
	.file 6 "/Developer/arm/gcc-arm-none-eabi/arm-none-eabi/include/machine/_default_types.h"
	.file 7 "/Developer/arm/gcc-arm-none-eabi/arm-none-eabi/include/sys/_stdint.h"
	.file 8 "../lpc_chip_11cxx_lib/inc/chip.h"
	.file 9 "/Developer/arm/gcc-arm-none-eabi/arm-none-eabi/include/sys/lock.h"
	.file 10 "/Developer/arm/gcc-arm-none-eabi/arm-none-eabi/include/sys/_types.h"
	.file 11 "/Developer/arm/gcc-arm-none-eabi/lib/gcc/arm-none-eabi/7.2.1/include/stddef.h"
	.file 12 "/Developer/arm/gcc-arm-none-eabi/arm-none-eabi/include/sys/reent.h"