	.cpu cortex-m0
	.eabi_attribute 20, 1
	.eabi_attribute 21, 1
	.eabi_attribute 23, 3
	.eabi_attribute 24, 1
	.eabi_attribute 25, 1
	.eabi_attribute 26, 1
	.eabi_attribute 30, 1
	.eabi_attribute 34, 0
	.eabi_attribute 18, 4
	.file	"board_sysinit.c"
	.text
.Ltext0:
	.cfi_sections	.debug_frame
	.section	.text.Board_SystemInit,"ax",%progbits
	.align	1
	.global	Board_SystemInit
	.syntax unified
	.code	16
	.thumb_func
	.fpu softvfp
	.type	Board_SystemInit, %function
Board_SystemInit:
.LFB203:
	.file 1 "src/board_sysinit.c"
	.loc 1 133 0
	.cfi_startproc
	@ args = 0, pretend = 0, frame = 8
	@ frame_needed = 0, uses_anonymous_args = 0
	push	{r4, r5, lr}
	.cfi_def_cfa_offset 12
	.cfi_offset 4, -12
	.cfi_offset 5, -8
	.cfi_offset 14, -4
	sub	sp, sp, #12
	.cfi_def_cfa_offset 24
.LBB30:
.LBB31:
	.loc 1 78 0
	movs	r0, #32
	bl	Chip_SYSCTL_PowerUp
.LVL0:
	.loc 1 82 0
	movs	r3, #0
	str	r3, [sp, #4]
	ldr	r3, [sp, #4]
	cmp	r3, #255
	bgt	.L2
.L3:
	ldr	r3, [sp, #4]
	adds	r3, r3, #1
	str	r3, [sp, #4]
	ldr	r3, [sp, #4]
	cmp	r3, #255
	ble	.L3
.L2:
	.loc 1 85 0
	movs	r0, #1
	bl	Chip_Clock_SetSystemPLLSource
.LVL1:
	.loc 1 88 0
	movs	r0, #128
	bl	Chip_SYSCTL_PowerDown
.LVL2:
.LBB32:
.LBB33:
	.file 2 "../lpc_chip_11cxx_lib/inc/clock_11xx.h"
	.loc 2 56 0
	ldr	r3, .L7
	movs	r2, #35
	str	r2, [r3, #8]
.LVL3:
.LBE33:
.LBE32:
	.loc 1 97 0
	movs	r0, #128
	bl	Chip_SYSCTL_PowerUp
.LVL4:
.LBB34:
.LBB35:
	.loc 2 65 0
	ldr	r1, .L7
	movs	r2, #1
.L4:
	ldr	r3, [r1, #12]
.LBE35:
.LBE34:
	.loc 1 100 0
	tst	r2, r3
	beq	.L4
.LVL5:
.LBB36:
.LBB37:
	.loc 2 222 0
	ldr	r5, .L7
	movs	r4, #1
	str	r4, [r5, #120]
.LVL6:
.LBE37:
.LBE36:
.LBB38:
.LBB39:
	.file 3 "../lpc_chip_11cxx_lib/inc/fmc_11xx.h"
	.loc 3 87 0
	ldr	r2, .L7+4
	ldr	r3, [r2, #16]
.LVL7:
	movs	r1, #3
	bics	r3, r1
.LVL8:
	.loc 3 90 0
	subs	r1, r1, #1
	orrs	r3, r1
	str	r3, [r2, #16]
.LVL9:
.LBE39:
.LBE38:
	.loc 1 110 0
	movs	r0, #3
	bl	Chip_Clock_SetMainClockSource
.LVL10:
.LBE31:
.LBE30:
.LBB40:
.LBB41:
.LBB42:
.LBB43:
	.loc 2 297 0
	movs	r2, #128
	ldr	r1, [r5, r2]
	movs	r3, #128
	lsls	r3, r3, #9
	orrs	r3, r1
	str	r3, [r5, r2]
.LVL11:
.LBE43:
.LBE42:
.LBB44:
.LBB45:
	.file 4 "../lpc_chip_11cxx_lib/inc/iocon_11xx.h"
	.loc 4 251 0
	ldr	r3, .L7+8
	str	r4, [r3, #16]
.LVL12:
	str	r4, [r3, #28]
.LVL13:
	str	r4, [r3, #48]
.LVL14:
	str	r4, [r3, #52]
.LVL15:
	str	r4, [r3, #96]
.LVL16:
	str	r4, [r3, #100]
.LVL17:
	str	r4, [r3, #116]
.LVL18:
	adds	r2, r2, #36
	str	r4, [r3, r2]
.LVL19:
	adds	r2, r2, #4
	str	r4, [r3, r2]
.LVL20:
	str	r4, [r3, #112]
.LVL21:
.LBE45:
.LBE44:
.LBE41:
.LBE40:
	.loc 1 137 0
	add	sp, sp, #12
	@ sp needed
	pop	{r4, r5, pc}
.L8:
	.align	2
.L7:
	.word	1074036736
	.word	1073987584
	.word	1074020352
	.cfi_endproc
.LFE203:
	.size	Board_SystemInit, .-Board_SystemInit
	.text
.Letext0:
	.file 5 "/Developer/arm/gcc-arm-none-eabi/arm-none-eabi/include/machine/_default_types.h"
	.file 6 "/Developer/arm/gcc-arm-none-eabi/arm-none-eabi/include/sys/_stdint.h"
	.file 7 "../lpc_chip_11cxx_lib/inc/chip.h"
	.file 8 "../lpc_chip_11cxx_lib/inc/sysctl_11xx.h"
	.file 9 "/Developer/arm/gcc-arm-none-eabi/arm-none-eabi/include/sys/lock.h"
	.file 10 "/Developer/arm/gcc-arm-none-eabi/arm-none-eabi/include/sys/_types.h"
	.file 11 "/Developer/arm/gcc-arm-none-eabi/lib/gcc/arm-none-eabi/7.2.1/include/stddef.h"
	.file 12 "/Developer/arm/gcc-arm-none-eabi/arm-none-eabi/include/sys/reent.h"